
2561.elf:     file format elf32-avr

Sections:
Idx Name          Size      VMA       LMA       File off  Algn
  0 .data         0000017a  00800200  000021be  00002252  2**0
                  CONTENTS, ALLOC, LOAD, DATA
  1 .text         000021be  00000000  00000000  00000094  2**1
                  CONTENTS, ALLOC, LOAD, READONLY, CODE
  2 .bss          00000b9b  0080037a  0080037a  000023cc  2**0
                  ALLOC
  3 .comment      0000005c  00000000  00000000  000023cc  2**0
                  CONTENTS, READONLY
  4 .note.gnu.avr.deviceinfo 00000040  00000000  00000000  00002428  2**2
                  CONTENTS, READONLY
  5 .debug_aranges 00000210  00000000  00000000  00002468  2**0
                  CONTENTS, READONLY, DEBUGGING
  6 .debug_info   00002d7e  00000000  00000000  00002678  2**0
                  CONTENTS, READONLY, DEBUGGING
  7 .debug_abbrev 0000106e  00000000  00000000  000053f6  2**0
                  CONTENTS, READONLY, DEBUGGING
  8 .debug_line   000018d8  00000000  00000000  00006464  2**0
                  CONTENTS, READONLY, DEBUGGING
  9 .debug_frame  00000934  00000000  00000000  00007d3c  2**2
                  CONTENTS, READONLY, DEBUGGING
 10 .debug_str    00000b7e  00000000  00000000  00008670  2**0
                  CONTENTS, READONLY, DEBUGGING
 11 .debug_loc    0000208a  00000000  00000000  000091ee  2**0
                  CONTENTS, READONLY, DEBUGGING
 12 .debug_ranges 000001f0  00000000  00000000  0000b278  2**0
                  CONTENTS, READONLY, DEBUGGING

Disassembly of section .text:

00000000 <__vectors>:
       0:	65 c0       	rjmp	.+202    	; 0xcc <__ctors_end>
       2:	00 00       	nop
       4:	84 c0       	rjmp	.+264    	; 0x10e <__bad_interrupt>
       6:	00 00       	nop
       8:	82 c0       	rjmp	.+260    	; 0x10e <__bad_interrupt>
       a:	00 00       	nop
       c:	80 c0       	rjmp	.+256    	; 0x10e <__bad_interrupt>
       e:	00 00       	nop
      10:	7e c0       	rjmp	.+252    	; 0x10e <__bad_interrupt>
      12:	00 00       	nop
      14:	0c 94 5d 09 	jmp	0x12ba	; 0x12ba <__vector_5>
      18:	0c 94 af 09 	jmp	0x135e	; 0x135e <__vector_6>
      1c:	0c 94 03 0a 	jmp	0x1406	; 0x1406 <__vector_7>
      20:	76 c0       	rjmp	.+236    	; 0x10e <__bad_interrupt>
      22:	00 00       	nop
      24:	74 c0       	rjmp	.+232    	; 0x10e <__bad_interrupt>
      26:	00 00       	nop
      28:	72 c0       	rjmp	.+228    	; 0x10e <__bad_interrupt>
      2a:	00 00       	nop
      2c:	70 c0       	rjmp	.+224    	; 0x10e <__bad_interrupt>
      2e:	00 00       	nop
      30:	6e c0       	rjmp	.+220    	; 0x10e <__bad_interrupt>
      32:	00 00       	nop
      34:	0c 94 1a 08 	jmp	0x1034	; 0x1034 <__vector_13>
      38:	6a c0       	rjmp	.+212    	; 0x10e <__bad_interrupt>
      3a:	00 00       	nop
      3c:	68 c0       	rjmp	.+208    	; 0x10e <__bad_interrupt>
      3e:	00 00       	nop
      40:	66 c0       	rjmp	.+204    	; 0x10e <__bad_interrupt>
      42:	00 00       	nop
      44:	64 c0       	rjmp	.+200    	; 0x10e <__bad_interrupt>
      46:	00 00       	nop
      48:	62 c0       	rjmp	.+196    	; 0x10e <__bad_interrupt>
      4a:	00 00       	nop
      4c:	60 c0       	rjmp	.+192    	; 0x10e <__bad_interrupt>
      4e:	00 00       	nop
      50:	5e c0       	rjmp	.+188    	; 0x10e <__bad_interrupt>
      52:	00 00       	nop
      54:	5c c0       	rjmp	.+184    	; 0x10e <__bad_interrupt>
      56:	00 00       	nop
      58:	5a c0       	rjmp	.+180    	; 0x10e <__bad_interrupt>
      5a:	00 00       	nop
      5c:	58 c0       	rjmp	.+176    	; 0x10e <__bad_interrupt>
      5e:	00 00       	nop
      60:	0c 94 53 09 	jmp	0x12a6	; 0x12a6 <__vector_24>
      64:	54 c0       	rjmp	.+168    	; 0x10e <__bad_interrupt>
      66:	00 00       	nop
      68:	52 c0       	rjmp	.+164    	; 0x10e <__bad_interrupt>
      6a:	00 00       	nop
      6c:	50 c0       	rjmp	.+160    	; 0x10e <__bad_interrupt>
      6e:	00 00       	nop
      70:	4e c0       	rjmp	.+156    	; 0x10e <__bad_interrupt>
      72:	00 00       	nop
      74:	0c 94 41 08 	jmp	0x1082	; 0x1082 <__vector_29>
      78:	4a c0       	rjmp	.+148    	; 0x10e <__bad_interrupt>
      7a:	00 00       	nop
      7c:	48 c0       	rjmp	.+144    	; 0x10e <__bad_interrupt>
      7e:	00 00       	nop
      80:	46 c0       	rjmp	.+140    	; 0x10e <__bad_interrupt>
      82:	00 00       	nop
      84:	44 c0       	rjmp	.+136    	; 0x10e <__bad_interrupt>
      86:	00 00       	nop
      88:	42 c0       	rjmp	.+132    	; 0x10e <__bad_interrupt>
      8a:	00 00       	nop
      8c:	40 c0       	rjmp	.+128    	; 0x10e <__bad_interrupt>
      8e:	00 00       	nop
      90:	0c 94 2b 09 	jmp	0x1256	; 0x1256 <__vector_36>
      94:	0c 94 db 08 	jmp	0x11b6	; 0x11b6 <__vector_37>
      98:	0c 94 03 09 	jmp	0x1206	; 0x1206 <__vector_38>
      9c:	38 c0       	rjmp	.+112    	; 0x10e <__bad_interrupt>
      9e:	00 00       	nop
      a0:	36 c0       	rjmp	.+108    	; 0x10e <__bad_interrupt>
      a2:	00 00       	nop
      a4:	34 c0       	rjmp	.+104    	; 0x10e <__bad_interrupt>
      a6:	00 00       	nop
      a8:	32 c0       	rjmp	.+100    	; 0x10e <__bad_interrupt>
      aa:	00 00       	nop
      ac:	30 c0       	rjmp	.+96     	; 0x10e <__bad_interrupt>
      ae:	00 00       	nop
      b0:	2e c0       	rjmp	.+92     	; 0x10e <__bad_interrupt>
      b2:	00 00       	nop
      b4:	2c c0       	rjmp	.+88     	; 0x10e <__bad_interrupt>
      b6:	00 00       	nop
      b8:	2a c0       	rjmp	.+84     	; 0x10e <__bad_interrupt>
      ba:	00 00       	nop
      bc:	28 c0       	rjmp	.+80     	; 0x10e <__bad_interrupt>
      be:	00 00       	nop
      c0:	26 c0       	rjmp	.+76     	; 0x10e <__bad_interrupt>
      c2:	00 00       	nop
      c4:	24 c0       	rjmp	.+72     	; 0x10e <__bad_interrupt>
      c6:	00 00       	nop
      c8:	22 c0       	rjmp	.+68     	; 0x10e <__bad_interrupt>
	...

000000cc <__ctors_end>:
      cc:	11 24       	eor	r1, r1
      ce:	1f be       	out	0x3f, r1	; 63
      d0:	cf ef       	ldi	r28, 0xFF	; 255
      d2:	d1 e2       	ldi	r29, 0x21	; 33
      d4:	de bf       	out	0x3e, r29	; 62
      d6:	cd bf       	out	0x3d, r28	; 61
      d8:	00 e0       	ldi	r16, 0x00	; 0
      da:	0c bf       	out	0x3c, r16	; 60

000000dc <__do_copy_data>:
      dc:	13 e0       	ldi	r17, 0x03	; 3
      de:	a0 e0       	ldi	r26, 0x00	; 0
      e0:	b2 e0       	ldi	r27, 0x02	; 2
      e2:	ee eb       	ldi	r30, 0xBE	; 190
      e4:	f1 e2       	ldi	r31, 0x21	; 33
      e6:	00 e0       	ldi	r16, 0x00	; 0
      e8:	0b bf       	out	0x3b, r16	; 59
      ea:	02 c0       	rjmp	.+4      	; 0xf0 <__do_copy_data+0x14>
      ec:	07 90       	elpm	r0, Z+
      ee:	0d 92       	st	X+, r0
      f0:	aa 37       	cpi	r26, 0x7A	; 122
      f2:	b1 07       	cpc	r27, r17
      f4:	d9 f7       	brne	.-10     	; 0xec <__do_copy_data+0x10>

000000f6 <__do_clear_bss>:
      f6:	2f e0       	ldi	r18, 0x0F	; 15
      f8:	aa e7       	ldi	r26, 0x7A	; 122
      fa:	b3 e0       	ldi	r27, 0x03	; 3
      fc:	01 c0       	rjmp	.+2      	; 0x100 <.do_clear_bss_start>

000000fe <.do_clear_bss_loop>:
      fe:	1d 92       	st	X+, r1

00000100 <.do_clear_bss_start>:
     100:	a5 31       	cpi	r26, 0x15	; 21
     102:	b2 07       	cpc	r27, r18
     104:	e1 f7       	brne	.-8      	; 0xfe <.do_clear_bss_loop>
     106:	0e 94 65 0b 	call	0x16ca	; 0x16ca <main>
     10a:	0c 94 dd 10 	jmp	0x21ba	; 0x21ba <_exit>

0000010e <__bad_interrupt>:
     10e:	78 cf       	rjmp	.-272    	; 0x0 <__vectors>

00000110 <UART_Send_Buffer_Empty>:
		message.data[5]=monitor_current_message[11];
		message.data[6]=0x20;
		message.data[7]=0x20;
		
		can_send_message(&message,module);		
};
     110:	80 91 88 03 	lds	r24, 0x0388	; 0x800388 <UART1_string_position>
     114:	e0 91 89 03 	lds	r30, 0x0389	; 0x800389 <UART1_Send_Buffer>
     118:	f0 91 8a 03 	lds	r31, 0x038A	; 0x80038a <UART1_Send_Buffer+0x1>
     11c:	e8 0f       	add	r30, r24
     11e:	f1 1d       	adc	r31, r1
     120:	80 81       	ld	r24, Z
     122:	88 23       	and	r24, r24
     124:	69 f0       	breq	.+26     	; 0x140 <UART_Send_Buffer_Empty+0x30>
     126:	80 93 ce 00 	sts	0x00CE, r24	; 0x8000ce <__TEXT_REGION_LENGTH__+0x7000ce>
     12a:	80 91 88 03 	lds	r24, 0x0388	; 0x800388 <UART1_string_position>
     12e:	8f 5f       	subi	r24, 0xFF	; 255
     130:	80 93 88 03 	sts	0x0388, r24	; 0x800388 <UART1_string_position>
     134:	e9 ec       	ldi	r30, 0xC9	; 201
     136:	f0 e0       	ldi	r31, 0x00	; 0
     138:	80 81       	ld	r24, Z
     13a:	80 64       	ori	r24, 0x40	; 64
     13c:	80 83       	st	Z, r24
     13e:	08 95       	ret
     140:	8a e0       	ldi	r24, 0x0A	; 10
     142:	80 93 ce 00 	sts	0x00CE, r24	; 0x8000ce <__TEXT_REGION_LENGTH__+0x7000ce>
     146:	e9 ec       	ldi	r30, 0xC9	; 201
     148:	f0 e0       	ldi	r31, 0x00	; 0
     14a:	80 81       	ld	r24, Z
     14c:	8f 7d       	andi	r24, 0xDF	; 223
     14e:	80 83       	st	Z, r24
     150:	08 95       	ret

00000152 <UART_Send_Ended>:
     152:	cf 93       	push	r28
     154:	df 93       	push	r29
     156:	e9 ec       	ldi	r30, 0xC9	; 201
     158:	f0 e0       	ldi	r31, 0x00	; 0
     15a:	80 81       	ld	r24, Z
     15c:	8f 7b       	andi	r24, 0xBF	; 191
     15e:	80 83       	st	Z, r24
     160:	c9 e8       	ldi	r28, 0x89	; 137
     162:	d3 e0       	ldi	r29, 0x03	; 3
     164:	88 81       	ld	r24, Y
     166:	99 81       	ldd	r25, Y+1	; 0x01
     168:	0e 94 67 0d 	call	0x1ace	; 0x1ace <free>
     16c:	2a 81       	ldd	r18, Y+2	; 0x02
     16e:	3b 81       	ldd	r19, Y+3	; 0x03
     170:	21 15       	cp	r18, r1
     172:	31 05       	cpc	r19, r1
     174:	41 f1       	breq	.+80     	; 0x1c6 <UART_Send_Ended+0x74>
     176:	81 e0       	ldi	r24, 0x01	; 1
     178:	90 e0       	ldi	r25, 0x00	; 0
     17a:	41 e0       	ldi	r20, 0x01	; 1
     17c:	88 0f       	add	r24, r24
     17e:	99 1f       	adc	r25, r25
     180:	fc 01       	movw	r30, r24
     182:	e9 57       	subi	r30, 0x79	; 121
     184:	fc 4f       	sbci	r31, 0xFC	; 252
     186:	31 83       	std	Z+1, r19	; 0x01
     188:	20 83       	st	Z, r18
     18a:	4f 5f       	subi	r20, 0xFF	; 255
     18c:	84 2f       	mov	r24, r20
     18e:	90 e0       	ldi	r25, 0x00	; 0
     190:	fc 01       	movw	r30, r24
     192:	ee 0f       	add	r30, r30
     194:	ff 1f       	adc	r31, r31
     196:	e7 57       	subi	r30, 0x77	; 119
     198:	fc 4f       	sbci	r31, 0xFC	; 252
     19a:	20 81       	ld	r18, Z
     19c:	31 81       	ldd	r19, Z+1	; 0x01
     19e:	21 15       	cp	r18, r1
     1a0:	31 05       	cpc	r19, r1
     1a2:	61 f7       	brne	.-40     	; 0x17c <UART_Send_Ended+0x2a>
     1a4:	88 0f       	add	r24, r24
     1a6:	99 1f       	adc	r25, r25
     1a8:	fc 01       	movw	r30, r24
     1aa:	e9 57       	subi	r30, 0x79	; 121
     1ac:	fc 4f       	sbci	r31, 0xFC	; 252
     1ae:	11 82       	std	Z+1, r1	; 0x01
     1b0:	10 82       	st	Z, r1
     1b2:	42 30       	cpi	r20, 0x02	; 2
     1b4:	60 f0       	brcs	.+24     	; 0x1ce <UART_Send_Ended+0x7c>
     1b6:	10 92 88 03 	sts	0x0388, r1	; 0x800388 <UART1_string_position>
     1ba:	e9 ec       	ldi	r30, 0xC9	; 201
     1bc:	f0 e0       	ldi	r31, 0x00	; 0
     1be:	80 81       	ld	r24, Z
     1c0:	80 62       	ori	r24, 0x20	; 32
     1c2:	80 83       	st	Z, r24
     1c4:	04 c0       	rjmp	.+8      	; 0x1ce <UART_Send_Ended+0x7c>
     1c6:	10 92 8a 03 	sts	0x038A, r1	; 0x80038a <UART1_Send_Buffer+0x1>
     1ca:	10 92 89 03 	sts	0x0389, r1	; 0x800389 <UART1_Send_Buffer>
     1ce:	df 91       	pop	r29
     1d0:	cf 91       	pop	r28
     1d2:	08 95       	ret

000001d4 <UART_Char_Received>:
     1d4:	80 91 ce 00 	lds	r24, 0x00CE	; 0x8000ce <__TEXT_REGION_LENGTH__+0x7000ce>
     1d8:	8d 30       	cpi	r24, 0x0D	; 13
     1da:	09 f4       	brne	.+2      	; 0x1de <UART_Char_Received+0xa>
     1dc:	3f c0       	rjmp	.+126    	; 0x25c <UART_Char_Received+0x88>
     1de:	90 91 86 03 	lds	r25, 0x0386	; 0x800386 <New_command_receive_status>
     1e2:	91 11       	cpse	r25, r1
     1e4:	0a c0       	rjmp	.+20     	; 0x1fa <UART_Char_Received+0x26>
     1e6:	10 92 87 03 	sts	0x0387, r1	; 0x800387 <New_command_parameter_length>
     1ea:	80 93 cf 04 	sts	0x04CF, r24	; 0x8004cf <New_command_id>
     1ee:	10 92 89 04 	sts	0x0489, r1	; 0x800489 <New_command>
     1f2:	81 e0       	ldi	r24, 0x01	; 1
     1f4:	80 93 86 03 	sts	0x0386, r24	; 0x800386 <New_command_receive_status>
     1f8:	08 95       	ret
     1fa:	8a 30       	cpi	r24, 0x0A	; 10
     1fc:	89 f0       	breq	.+34     	; 0x220 <UART_Char_Received+0x4c>
     1fe:	e0 91 87 03 	lds	r30, 0x0387	; 0x800387 <New_command_parameter_length>
     202:	e5 34       	cpi	r30, 0x45	; 69
     204:	68 f4       	brcc	.+26     	; 0x220 <UART_Char_Received+0x4c>
     206:	ae 2f       	mov	r26, r30
     208:	b0 e0       	ldi	r27, 0x00	; 0
     20a:	a7 57       	subi	r26, 0x77	; 119
     20c:	bb 4f       	sbci	r27, 0xFB	; 251
     20e:	8c 93       	st	X, r24
     210:	ef 5f       	subi	r30, 0xFF	; 255
     212:	e0 93 87 03 	sts	0x0387, r30	; 0x800387 <New_command_parameter_length>
     216:	f0 e0       	ldi	r31, 0x00	; 0
     218:	e7 57       	subi	r30, 0x77	; 119
     21a:	fb 4f       	sbci	r31, 0xFB	; 251
     21c:	10 82       	st	Z, r1
     21e:	08 95       	ret
     220:	10 92 86 03 	sts	0x0386, r1	; 0x800386 <New_command_receive_status>
     224:	20 91 23 0d 	lds	r18, 0x0D23	; 0x800d23 <UART_Command_Stack+0x852>
     228:	2e 31       	cpi	r18, 0x1E	; 30
     22a:	c1 f0       	breq	.+48     	; 0x25c <UART_Char_Received+0x88>
     22c:	30 e0       	ldi	r19, 0x00	; 0
     22e:	f9 01       	movw	r30, r18
     230:	ef 52       	subi	r30, 0x2F	; 47
     232:	fb 4f       	sbci	r31, 0xFB	; 251
     234:	80 91 cf 04 	lds	r24, 0x04CF	; 0x8004cf <New_command_id>
     238:	80 83       	st	Z, r24
     23a:	46 e4       	ldi	r20, 0x46	; 70
     23c:	42 9f       	mul	r20, r18
     23e:	c0 01       	movw	r24, r0
     240:	43 9f       	mul	r20, r19
     242:	90 0d       	add	r25, r0
     244:	11 24       	eor	r1, r1
     246:	69 e8       	ldi	r22, 0x89	; 137
     248:	74 e0       	ldi	r23, 0x04	; 4
     24a:	81 51       	subi	r24, 0x11	; 17
     24c:	9b 4f       	sbci	r25, 0xFB	; 251
     24e:	0e 94 fb 0d 	call	0x1bf6	; 0x1bf6 <strcpy>
     252:	e3 e2       	ldi	r30, 0x23	; 35
     254:	fd e0       	ldi	r31, 0x0D	; 13
     256:	80 81       	ld	r24, Z
     258:	8f 5f       	subi	r24, 0xFF	; 255
     25a:	80 83       	st	Z, r24
     25c:	08 95       	ret

0000025e <init_UART_Buffer>:
     25e:	e9 e8       	ldi	r30, 0x89	; 137
     260:	f3 e0       	ldi	r31, 0x03	; 3
     262:	85 e1       	ldi	r24, 0x15	; 21
     264:	94 e0       	ldi	r25, 0x04	; 4
     266:	11 92       	st	Z+, r1
     268:	11 92       	st	Z+, r1
     26a:	e8 17       	cp	r30, r24
     26c:	f9 07       	cpc	r31, r25
     26e:	d9 f7       	brne	.-10     	; 0x266 <init_UART_Buffer+0x8>
     270:	10 92 23 0d 	sts	0x0D23, r1	; 0x800d23 <UART_Command_Stack+0x852>
     274:	08 95       	ret

00000276 <UART_Add_Message>:
     276:	ff 92       	push	r15
     278:	0f 93       	push	r16
     27a:	1f 93       	push	r17
     27c:	cf 93       	push	r28
     27e:	df 93       	push	r29
     280:	8c 01       	movw	r16, r24
     282:	ff b6       	in	r15, 0x3f	; 63
     284:	f8 94       	cli
     286:	fc 01       	movw	r30, r24
     288:	01 90       	ld	r0, Z+
     28a:	00 20       	and	r0, r0
     28c:	e9 f7       	brne	.-6      	; 0x288 <UART_Add_Message+0x12>
     28e:	cf 01       	movw	r24, r30
     290:	80 1b       	sub	r24, r16
     292:	91 0b       	sbc	r25, r17
     294:	0e 94 cf 0c 	call	0x199e	; 0x199e <malloc>
     298:	ec 01       	movw	r28, r24
     29a:	b8 01       	movw	r22, r16
     29c:	0e 94 fb 0d 	call	0x1bf6	; 0x1bf6 <strcpy>
     2a0:	80 91 89 03 	lds	r24, 0x0389	; 0x800389 <UART1_Send_Buffer>
     2a4:	90 91 8a 03 	lds	r25, 0x038A	; 0x80038a <UART1_Send_Buffer+0x1>
     2a8:	89 2b       	or	r24, r25
     2aa:	81 f0       	breq	.+32     	; 0x2cc <UART_Add_Message+0x56>
     2ac:	80 e0       	ldi	r24, 0x00	; 0
     2ae:	8f 5f       	subi	r24, 0xFF	; 255
     2b0:	28 2f       	mov	r18, r24
     2b2:	30 e0       	ldi	r19, 0x00	; 0
     2b4:	f9 01       	movw	r30, r18
     2b6:	ee 0f       	add	r30, r30
     2b8:	ff 1f       	adc	r31, r31
     2ba:	e7 57       	subi	r30, 0x77	; 119
     2bc:	fc 4f       	sbci	r31, 0xFC	; 252
     2be:	40 81       	ld	r20, Z
     2c0:	51 81       	ldd	r21, Z+1	; 0x01
     2c2:	45 2b       	or	r20, r21
     2c4:	a1 f7       	brne	.-24     	; 0x2ae <UART_Add_Message+0x38>
     2c6:	86 34       	cpi	r24, 0x46	; 70
     2c8:	50 f4       	brcc	.+20     	; 0x2de <UART_Add_Message+0x68>
     2ca:	02 c0       	rjmp	.+4      	; 0x2d0 <UART_Add_Message+0x5a>
     2cc:	20 e0       	ldi	r18, 0x00	; 0
     2ce:	30 e0       	ldi	r19, 0x00	; 0
     2d0:	22 0f       	add	r18, r18
     2d2:	33 1f       	adc	r19, r19
     2d4:	f9 01       	movw	r30, r18
     2d6:	e7 57       	subi	r30, 0x77	; 119
     2d8:	fc 4f       	sbci	r31, 0xFC	; 252
     2da:	d1 83       	std	Z+1, r29	; 0x01
     2dc:	c0 83       	st	Z, r28
     2de:	80 91 c9 00 	lds	r24, 0x00C9	; 0x8000c9 <__TEXT_REGION_LENGTH__+0x7000c9>
     2e2:	85 fd       	sbrc	r24, 5
     2e4:	07 c0       	rjmp	.+14     	; 0x2f4 <UART_Add_Message+0x7e>
     2e6:	e9 ec       	ldi	r30, 0xC9	; 201
     2e8:	f0 e0       	ldi	r31, 0x00	; 0
     2ea:	80 81       	ld	r24, Z
     2ec:	80 62       	ori	r24, 0x20	; 32
     2ee:	80 83       	st	Z, r24
     2f0:	10 92 88 03 	sts	0x0388, r1	; 0x800388 <UART1_string_position>
     2f4:	ff be       	out	0x3f, r15	; 63
     2f6:	df 91       	pop	r29
     2f8:	cf 91       	pop	r28
     2fa:	1f 91       	pop	r17
     2fc:	0f 91       	pop	r16
     2fe:	ff 90       	pop	r15
     300:	08 95       	ret

00000302 <UART_Command_Processor>:
     302:	df 92       	push	r13
     304:	ef 92       	push	r14
     306:	ff 92       	push	r15
     308:	0f 93       	push	r16
     30a:	1f 93       	push	r17
     30c:	cf 93       	push	r28
     30e:	df 93       	push	r29
     310:	cd b7       	in	r28, 0x3d	; 61
     312:	de b7       	in	r29, 0x3e	; 62
     314:	e2 97       	sbiw	r28, 0x32	; 50
     316:	0f b6       	in	r0, 0x3f	; 63
     318:	f8 94       	cli
     31a:	de bf       	out	0x3e, r29	; 62
     31c:	0f be       	out	0x3f, r0	; 63
     31e:	cd bf       	out	0x3d, r28	; 61
     320:	df b6       	in	r13, 0x3f	; 63
     322:	f8 94       	cli
     324:	80 91 23 0d 	lds	r24, 0x0D23	; 0x800d23 <UART_Command_Stack+0x852>
     328:	88 23       	and	r24, r24
     32a:	09 f4       	brne	.+2      	; 0x32e <UART_Command_Processor+0x2c>
     32c:	45 c0       	rjmp	.+138    	; 0x3b8 <UART_Command_Processor+0xb6>
     32e:	8f ee       	ldi	r24, 0xEF	; 239
     330:	94 e0       	ldi	r25, 0x04	; 4
     332:	9f 93       	push	r25
     334:	8f 93       	push	r24
     336:	80 91 d1 04 	lds	r24, 0x04D1	; 0x8004d1 <UART_Command_Stack>
     33a:	1f 92       	push	r1
     33c:	8f 93       	push	r24
     33e:	8a e4       	ldi	r24, 0x4A	; 74
     340:	92 e0       	ldi	r25, 0x02	; 2
     342:	9f 93       	push	r25
     344:	8f 93       	push	r24
     346:	8e 01       	movw	r16, r28
     348:	0f 5f       	subi	r16, 0xFF	; 255
     34a:	1f 4f       	sbci	r17, 0xFF	; 255
     34c:	1f 93       	push	r17
     34e:	0f 93       	push	r16
     350:	0e 94 02 0e 	call	0x1c04	; 0x1c04 <sprintf>
     354:	c8 01       	movw	r24, r16
     356:	8f df       	rcall	.-226    	; 0x276 <UART_Add_Message>
     358:	e3 e2       	ldi	r30, 0x23	; 35
     35a:	fd e0       	ldi	r31, 0x0D	; 13
     35c:	80 81       	ld	r24, Z
     35e:	81 50       	subi	r24, 0x01	; 1
     360:	80 83       	st	Z, r24
     362:	0f b6       	in	r0, 0x3f	; 63
     364:	f8 94       	cli
     366:	de bf       	out	0x3e, r29	; 62
     368:	0f be       	out	0x3f, r0	; 63
     36a:	cd bf       	out	0x3d, r28	; 61
     36c:	88 23       	and	r24, r24
     36e:	21 f1       	breq	.+72     	; 0x3b8 <UART_Command_Processor+0xb6>
     370:	10 e0       	ldi	r17, 0x00	; 0
     372:	06 e4       	ldi	r16, 0x46	; 70
     374:	7f 01       	movw	r14, r30
     376:	21 2f       	mov	r18, r17
     378:	30 e0       	ldi	r19, 0x00	; 0
     37a:	c9 01       	movw	r24, r18
     37c:	01 96       	adiw	r24, 0x01	; 1
     37e:	fc 01       	movw	r30, r24
     380:	ef 52       	subi	r30, 0x2F	; 47
     382:	fb 4f       	sbci	r31, 0xFB	; 251
     384:	40 81       	ld	r20, Z
     386:	f9 01       	movw	r30, r18
     388:	ef 52       	subi	r30, 0x2F	; 47
     38a:	fb 4f       	sbci	r31, 0xFB	; 251
     38c:	40 83       	st	Z, r20
     38e:	08 9f       	mul	r16, r24
     390:	b0 01       	movw	r22, r0
     392:	09 9f       	mul	r16, r25
     394:	70 0d       	add	r23, r0
     396:	11 24       	eor	r1, r1
     398:	61 51       	subi	r22, 0x11	; 17
     39a:	7b 4f       	sbci	r23, 0xFB	; 251
     39c:	02 9f       	mul	r16, r18
     39e:	c0 01       	movw	r24, r0
     3a0:	03 9f       	mul	r16, r19
     3a2:	90 0d       	add	r25, r0
     3a4:	11 24       	eor	r1, r1
     3a6:	81 51       	subi	r24, 0x11	; 17
     3a8:	9b 4f       	sbci	r25, 0xFB	; 251
     3aa:	0e 94 fb 0d 	call	0x1bf6	; 0x1bf6 <strcpy>
     3ae:	1f 5f       	subi	r17, 0xFF	; 255
     3b0:	f7 01       	movw	r30, r14
     3b2:	80 81       	ld	r24, Z
     3b4:	18 17       	cp	r17, r24
     3b6:	f8 f2       	brcs	.-66     	; 0x376 <UART_Command_Processor+0x74>
     3b8:	df be       	out	0x3f, r13	; 63
     3ba:	e2 96       	adiw	r28, 0x32	; 50
     3bc:	0f b6       	in	r0, 0x3f	; 63
     3be:	f8 94       	cli
     3c0:	de bf       	out	0x3e, r29	; 62
     3c2:	0f be       	out	0x3f, r0	; 63
     3c4:	cd bf       	out	0x3d, r28	; 61
     3c6:	df 91       	pop	r29
     3c8:	cf 91       	pop	r28
     3ca:	1f 91       	pop	r17
     3cc:	0f 91       	pop	r16
     3ce:	ff 90       	pop	r15
     3d0:	ef 90       	pop	r14
     3d2:	df 90       	pop	r13
     3d4:	08 95       	ret

000003d6 <init_SPI>:
     3d6:	84 b1       	in	r24, 0x04	; 4
     3d8:	87 60       	ori	r24, 0x07	; 7
     3da:	84 b9       	out	0x04, r24	; 4
     3dc:	85 b1       	in	r24, 0x05	; 5
     3de:	89 7f       	andi	r24, 0xF9	; 249
     3e0:	85 b9       	out	0x05, r24	; 5
     3e2:	84 b1       	in	r24, 0x04	; 4
     3e4:	80 67       	ori	r24, 0x70	; 112
     3e6:	84 b9       	out	0x04, r24	; 4
     3e8:	85 b1       	in	r24, 0x05	; 5
     3ea:	80 67       	ori	r24, 0x70	; 112
     3ec:	85 b9       	out	0x05, r24	; 5
     3ee:	8d b1       	in	r24, 0x0d	; 13
     3f0:	1d b8       	out	0x0d, r1	; 13
     3f2:	8e b1       	in	r24, 0x0e	; 14
     3f4:	80 67       	ori	r24, 0x70	; 112
     3f6:	8e b9       	out	0x0e, r24	; 14
     3f8:	27 9a       	sbi	0x04, 7	; 4
     3fa:	2f 9a       	sbi	0x05, 7	; 5
     3fc:	80 e5       	ldi	r24, 0x50	; 80
     3fe:	8c bd       	out	0x2c, r24	; 44
     400:	81 e0       	ldi	r24, 0x01	; 1
     402:	8d bd       	out	0x2d, r24	; 45
     404:	08 95       	ret

00000406 <spi_putc>:
     406:	8e bd       	out	0x2e, r24	; 46
     408:	0d b4       	in	r0, 0x2d	; 45
     40a:	07 fe       	sbrs	r0, 7
     40c:	fd cf       	rjmp	.-6      	; 0x408 <spi_putc+0x2>
     40e:	8e b5       	in	r24, 0x2e	; 46
     410:	08 95       	ret

00000412 <mcp2515_soft_reset>:
     412:	0f 93       	push	r16
     414:	1f 93       	push	r17
     416:	cf 93       	push	r28
     418:	df 93       	push	r29
     41a:	90 e0       	ldi	r25, 0x00	; 0
     41c:	ec 01       	movw	r28, r24
     41e:	cc 0f       	add	r28, r28
     420:	dd 1f       	adc	r29, r29
     422:	cc 0f       	add	r28, r28
     424:	dd 1f       	adc	r29, r29
     426:	cc 0f       	add	r28, r28
     428:	dd 1f       	adc	r29, r29
     42a:	8c 0f       	add	r24, r28
     42c:	9d 1f       	adc	r25, r29
     42e:	ec 01       	movw	r28, r24
     430:	cd 5d       	subi	r28, 0xDD	; 221
     432:	dd 4f       	sbci	r29, 0xFD	; 253
     434:	e8 81       	ld	r30, Y
     436:	f9 81       	ldd	r31, Y+1	; 0x01
     438:	90 81       	ld	r25, Z
     43a:	01 e0       	ldi	r16, 0x01	; 1
     43c:	10 e0       	ldi	r17, 0x00	; 0
     43e:	98 01       	movw	r18, r16
     440:	0a 80       	ldd	r0, Y+2	; 0x02
     442:	02 c0       	rjmp	.+4      	; 0x448 <mcp2515_soft_reset+0x36>
     444:	22 0f       	add	r18, r18
     446:	33 1f       	adc	r19, r19
     448:	0a 94       	dec	r0
     44a:	e2 f7       	brpl	.-8      	; 0x444 <mcp2515_soft_reset+0x32>
     44c:	82 2f       	mov	r24, r18
     44e:	80 95       	com	r24
     450:	89 23       	and	r24, r25
     452:	80 83       	st	Z, r24
     454:	80 ec       	ldi	r24, 0xC0	; 192
     456:	d7 df       	rcall	.-82     	; 0x406 <spi_putc>
     458:	e8 81       	ld	r30, Y
     45a:	f9 81       	ldd	r31, Y+1	; 0x01
     45c:	80 81       	ld	r24, Z
     45e:	0a 80       	ldd	r0, Y+2	; 0x02
     460:	02 c0       	rjmp	.+4      	; 0x466 <mcp2515_soft_reset+0x54>
     462:	00 0f       	add	r16, r16
     464:	11 1f       	adc	r17, r17
     466:	0a 94       	dec	r0
     468:	e2 f7       	brpl	.-8      	; 0x462 <mcp2515_soft_reset+0x50>
     46a:	08 2b       	or	r16, r24
     46c:	00 83       	st	Z, r16
     46e:	df 91       	pop	r29
     470:	cf 91       	pop	r28
     472:	1f 91       	pop	r17
     474:	0f 91       	pop	r16
     476:	08 95       	ret

00000478 <mcp2515_read_status>:
     478:	0f 93       	push	r16
     47a:	1f 93       	push	r17
     47c:	cf 93       	push	r28
     47e:	df 93       	push	r29
     480:	9f b7       	in	r25, 0x3f	; 63
     482:	f8 94       	cli
     484:	90 e0       	ldi	r25, 0x00	; 0
     486:	ec 01       	movw	r28, r24
     488:	cc 0f       	add	r28, r28
     48a:	dd 1f       	adc	r29, r29
     48c:	cc 0f       	add	r28, r28
     48e:	dd 1f       	adc	r29, r29
     490:	cc 0f       	add	r28, r28
     492:	dd 1f       	adc	r29, r29
     494:	8c 0f       	add	r24, r28
     496:	9d 1f       	adc	r25, r29
     498:	ec 01       	movw	r28, r24
     49a:	cd 5d       	subi	r28, 0xDD	; 221
     49c:	dd 4f       	sbci	r29, 0xFD	; 253
     49e:	e8 81       	ld	r30, Y
     4a0:	f9 81       	ldd	r31, Y+1	; 0x01
     4a2:	90 81       	ld	r25, Z
     4a4:	01 e0       	ldi	r16, 0x01	; 1
     4a6:	10 e0       	ldi	r17, 0x00	; 0
     4a8:	98 01       	movw	r18, r16
     4aa:	0a 80       	ldd	r0, Y+2	; 0x02
     4ac:	02 c0       	rjmp	.+4      	; 0x4b2 <mcp2515_read_status+0x3a>
     4ae:	22 0f       	add	r18, r18
     4b0:	33 1f       	adc	r19, r19
     4b2:	0a 94       	dec	r0
     4b4:	e2 f7       	brpl	.-8      	; 0x4ae <mcp2515_read_status+0x36>
     4b6:	82 2f       	mov	r24, r18
     4b8:	80 95       	com	r24
     4ba:	89 23       	and	r24, r25
     4bc:	80 83       	st	Z, r24
     4be:	80 ea       	ldi	r24, 0xA0	; 160
     4c0:	a2 df       	rcall	.-188    	; 0x406 <spi_putc>
     4c2:	8f ef       	ldi	r24, 0xFF	; 255
     4c4:	a0 df       	rcall	.-192    	; 0x406 <spi_putc>
     4c6:	e8 81       	ld	r30, Y
     4c8:	f9 81       	ldd	r31, Y+1	; 0x01
     4ca:	90 81       	ld	r25, Z
     4cc:	0a 80       	ldd	r0, Y+2	; 0x02
     4ce:	02 c0       	rjmp	.+4      	; 0x4d4 <mcp2515_read_status+0x5c>
     4d0:	00 0f       	add	r16, r16
     4d2:	11 1f       	adc	r17, r17
     4d4:	0a 94       	dec	r0
     4d6:	e2 f7       	brpl	.-8      	; 0x4d0 <mcp2515_read_status+0x58>
     4d8:	09 2b       	or	r16, r25
     4da:	00 83       	st	Z, r16
     4dc:	df 91       	pop	r29
     4de:	cf 91       	pop	r28
     4e0:	1f 91       	pop	r17
     4e2:	0f 91       	pop	r16
     4e4:	08 95       	ret

000004e6 <mcp2515_enable_module>:
     4e6:	90 e0       	ldi	r25, 0x00	; 0
     4e8:	fc 01       	movw	r30, r24
     4ea:	ee 0f       	add	r30, r30
     4ec:	ff 1f       	adc	r31, r31
     4ee:	ee 0f       	add	r30, r30
     4f0:	ff 1f       	adc	r31, r31
     4f2:	ee 0f       	add	r30, r30
     4f4:	ff 1f       	adc	r31, r31
     4f6:	8e 0f       	add	r24, r30
     4f8:	9f 1f       	adc	r25, r31
     4fa:	fc 01       	movw	r30, r24
     4fc:	ed 5d       	subi	r30, 0xDD	; 221
     4fe:	fd 4f       	sbci	r31, 0xFD	; 253
     500:	a0 81       	ld	r26, Z
     502:	b1 81       	ldd	r27, Z+1	; 0x01
     504:	2c 91       	ld	r18, X
     506:	81 e0       	ldi	r24, 0x01	; 1
     508:	90 e0       	ldi	r25, 0x00	; 0
     50a:	02 80       	ldd	r0, Z+2	; 0x02
     50c:	02 c0       	rjmp	.+4      	; 0x512 <mcp2515_enable_module+0x2c>
     50e:	88 0f       	add	r24, r24
     510:	99 1f       	adc	r25, r25
     512:	0a 94       	dec	r0
     514:	e2 f7       	brpl	.-8      	; 0x50e <mcp2515_enable_module+0x28>
     516:	80 95       	com	r24
     518:	82 23       	and	r24, r18
     51a:	8c 93       	st	X, r24
     51c:	08 95       	ret

0000051e <mcp2515_release_module>:
     51e:	90 e0       	ldi	r25, 0x00	; 0
     520:	fc 01       	movw	r30, r24
     522:	ee 0f       	add	r30, r30
     524:	ff 1f       	adc	r31, r31
     526:	ee 0f       	add	r30, r30
     528:	ff 1f       	adc	r31, r31
     52a:	ee 0f       	add	r30, r30
     52c:	ff 1f       	adc	r31, r31
     52e:	8e 0f       	add	r24, r30
     530:	9f 1f       	adc	r25, r31
     532:	fc 01       	movw	r30, r24
     534:	ed 5d       	subi	r30, 0xDD	; 221
     536:	fd 4f       	sbci	r31, 0xFD	; 253
     538:	a0 81       	ld	r26, Z
     53a:	b1 81       	ldd	r27, Z+1	; 0x01
     53c:	2c 91       	ld	r18, X
     53e:	81 e0       	ldi	r24, 0x01	; 1
     540:	90 e0       	ldi	r25, 0x00	; 0
     542:	02 80       	ldd	r0, Z+2	; 0x02
     544:	02 c0       	rjmp	.+4      	; 0x54a <mcp2515_release_module+0x2c>
     546:	88 0f       	add	r24, r24
     548:	99 1f       	adc	r25, r25
     54a:	0a 94       	dec	r0
     54c:	e2 f7       	brpl	.-8      	; 0x546 <mcp2515_release_module+0x28>
     54e:	82 2b       	or	r24, r18
     550:	8c 93       	st	X, r24
     552:	08 95       	ret

00000554 <can_send_message>:
     554:	cf 92       	push	r12
     556:	df 92       	push	r13
     558:	ef 92       	push	r14
     55a:	ff 92       	push	r15
     55c:	0f 93       	push	r16
     55e:	1f 93       	push	r17
     560:	cf 93       	push	r28
     562:	df 93       	push	r29
     564:	7c 01       	movw	r14, r24
     566:	d6 2e       	mov	r13, r22
     568:	8f b7       	in	r24, 0x3f	; 63
     56a:	f8 94       	cli
     56c:	86 2f       	mov	r24, r22
     56e:	84 df       	rcall	.-248    	; 0x478 <mcp2515_read_status>
     570:	82 ff       	sbrs	r24, 2
     572:	08 c0       	rjmp	.+16     	; 0x584 <can_send_message+0x30>
     574:	84 ff       	sbrs	r24, 4
     576:	08 c0       	rjmp	.+16     	; 0x588 <can_send_message+0x34>
     578:	86 fd       	sbrc	r24, 6
     57a:	52 c0       	rjmp	.+164    	; 0x620 <can_send_message+0xcc>
     57c:	68 94       	set
     57e:	cc 24       	eor	r12, r12
     580:	c2 f8       	bld	r12, 2
     582:	05 c0       	rjmp	.+10     	; 0x58e <can_send_message+0x3a>
     584:	c1 2c       	mov	r12, r1
     586:	03 c0       	rjmp	.+6      	; 0x58e <can_send_message+0x3a>
     588:	68 94       	set
     58a:	cc 24       	eor	r12, r12
     58c:	c1 f8       	bld	r12, 1
     58e:	8d 2d       	mov	r24, r13
     590:	aa df       	rcall	.-172    	; 0x4e6 <mcp2515_enable_module>
     592:	8c 2d       	mov	r24, r12
     594:	80 64       	ori	r24, 0x40	; 64
     596:	37 df       	rcall	.-402    	; 0x406 <spi_putc>
     598:	f7 01       	movw	r30, r14
     59a:	80 81       	ld	r24, Z
     59c:	91 81       	ldd	r25, Z+1	; 0x01
     59e:	96 95       	lsr	r25
     5a0:	87 95       	ror	r24
     5a2:	96 95       	lsr	r25
     5a4:	87 95       	ror	r24
     5a6:	96 95       	lsr	r25
     5a8:	87 95       	ror	r24
     5aa:	2d df       	rcall	.-422    	; 0x406 <spi_putc>
     5ac:	f7 01       	movw	r30, r14
     5ae:	80 81       	ld	r24, Z
     5b0:	82 95       	swap	r24
     5b2:	88 0f       	add	r24, r24
     5b4:	80 7e       	andi	r24, 0xE0	; 224
     5b6:	27 df       	rcall	.-434    	; 0x406 <spi_putc>
     5b8:	80 e0       	ldi	r24, 0x00	; 0
     5ba:	25 df       	rcall	.-438    	; 0x406 <spi_putc>
     5bc:	80 e0       	ldi	r24, 0x00	; 0
     5be:	23 df       	rcall	.-442    	; 0x406 <spi_putc>
     5c0:	f7 01       	movw	r30, r14
     5c2:	13 81       	ldd	r17, Z+3	; 0x03
     5c4:	19 30       	cpi	r17, 0x09	; 9
     5c6:	08 f0       	brcs	.+2      	; 0x5ca <can_send_message+0x76>
     5c8:	18 e0       	ldi	r17, 0x08	; 8
     5ca:	f7 01       	movw	r30, r14
     5cc:	82 81       	ldd	r24, Z+2	; 0x02
     5ce:	88 23       	and	r24, r24
     5d0:	21 f0       	breq	.+8      	; 0x5da <can_send_message+0x86>
     5d2:	81 2f       	mov	r24, r17
     5d4:	80 64       	ori	r24, 0x40	; 64
     5d6:	17 df       	rcall	.-466    	; 0x406 <spi_putc>
     5d8:	12 c0       	rjmp	.+36     	; 0x5fe <can_send_message+0xaa>
     5da:	81 2f       	mov	r24, r17
     5dc:	14 df       	rcall	.-472    	; 0x406 <spi_putc>
     5de:	11 23       	and	r17, r17
     5e0:	71 f0       	breq	.+28     	; 0x5fe <can_send_message+0xaa>
     5e2:	e7 01       	movw	r28, r14
     5e4:	24 96       	adiw	r28, 0x04	; 4
     5e6:	11 50       	subi	r17, 0x01	; 1
     5e8:	01 2f       	mov	r16, r17
     5ea:	10 e0       	ldi	r17, 0x00	; 0
     5ec:	0b 5f       	subi	r16, 0xFB	; 251
     5ee:	1f 4f       	sbci	r17, 0xFF	; 255
     5f0:	0e 0d       	add	r16, r14
     5f2:	1f 1d       	adc	r17, r15
     5f4:	89 91       	ld	r24, Y+
     5f6:	07 df       	rcall	.-498    	; 0x406 <spi_putc>
     5f8:	c0 17       	cp	r28, r16
     5fa:	d1 07       	cpc	r29, r17
     5fc:	d9 f7       	brne	.-10     	; 0x5f4 <can_send_message+0xa0>
     5fe:	8d 2d       	mov	r24, r13
     600:	8e df       	rcall	.-228    	; 0x51e <mcp2515_release_module>
     602:	00 00       	nop
     604:	8d 2d       	mov	r24, r13
     606:	6f df       	rcall	.-290    	; 0x4e6 <mcp2515_enable_module>
     608:	c1 10       	cpse	r12, r1
     60a:	03 c0       	rjmp	.+6      	; 0x612 <can_send_message+0xbe>
     60c:	81 e8       	ldi	r24, 0x81	; 129
     60e:	fb de       	rcall	.-522    	; 0x406 <spi_putc>
     610:	03 c0       	rjmp	.+6      	; 0x618 <can_send_message+0xc4>
     612:	8c 2d       	mov	r24, r12
     614:	80 68       	ori	r24, 0x80	; 128
     616:	f7 de       	rcall	.-530    	; 0x406 <spi_putc>
     618:	8d 2d       	mov	r24, r13
     61a:	81 df       	rcall	.-254    	; 0x51e <mcp2515_release_module>
     61c:	81 e0       	ldi	r24, 0x01	; 1
     61e:	01 c0       	rjmp	.+2      	; 0x622 <can_send_message+0xce>
     620:	80 e0       	ldi	r24, 0x00	; 0
     622:	df 91       	pop	r29
     624:	cf 91       	pop	r28
     626:	1f 91       	pop	r17
     628:	0f 91       	pop	r16
     62a:	ff 90       	pop	r15
     62c:	ef 90       	pop	r14
     62e:	df 90       	pop	r13
     630:	cf 90       	pop	r12
     632:	08 95       	ret

00000634 <can_process_message>:
     634:	cf 93       	push	r28
     636:	df 93       	push	r29
     638:	ec 01       	movw	r28, r24
     63a:	88 81       	ld	r24, Y
     63c:	99 81       	ldd	r25, Y+1	; 0x01
     63e:	8a 38       	cpi	r24, 0x8A	; 138
     640:	23 e0       	ldi	r18, 0x03	; 3
     642:	92 07       	cpc	r25, r18
     644:	19 f0       	breq	.+6      	; 0x64c <can_process_message+0x18>
     646:	8a 3b       	cpi	r24, 0xBA	; 186
     648:	93 40       	sbci	r25, 0x03	; 3
     64a:	19 f4       	brne	.+6      	; 0x652 <can_process_message+0x1e>
     64c:	60 e0       	ldi	r22, 0x00	; 0
     64e:	ce 01       	movw	r24, r28
     650:	81 df       	rcall	.-254    	; 0x554 <can_send_message>
     652:	88 81       	ld	r24, Y
     654:	99 81       	ldd	r25, Y+1	; 0x01
     656:	81 30       	cpi	r24, 0x01	; 1
     658:	92 40       	sbci	r25, 0x02	; 2
     65a:	31 f5       	brne	.+76     	; 0x6a8 <can_process_message+0x74>
     65c:	8c 81       	ldd	r24, Y+4	; 0x04
     65e:	90 e0       	ldi	r25, 0x00	; 0
     660:	98 2f       	mov	r25, r24
     662:	88 27       	eor	r24, r24
     664:	2d 81       	ldd	r18, Y+5	; 0x05
     666:	82 0f       	add	r24, r18
     668:	91 1d       	adc	r25, r1
     66a:	90 93 07 02 	sts	0x0207, r25	; 0x800207 <current_rpm+0x1>
     66e:	80 93 06 02 	sts	0x0206, r24	; 0x800206 <current_rpm>
     672:	68 85       	ldd	r22, Y+8	; 0x08
     674:	70 e0       	ldi	r23, 0x00	; 0
     676:	76 2f       	mov	r23, r22
     678:	66 27       	eor	r22, r22
     67a:	89 85       	ldd	r24, Y+9	; 0x09
     67c:	68 0f       	add	r22, r24
     67e:	71 1d       	adc	r23, r1
     680:	07 2e       	mov	r0, r23
     682:	00 0c       	add	r0, r0
     684:	88 0b       	sbc	r24, r24
     686:	99 0b       	sbc	r25, r25
     688:	0e 94 43 0c 	call	0x1886	; 0x1886 <__floatsisf>
     68c:	20 e0       	ldi	r18, 0x00	; 0
     68e:	30 e0       	ldi	r19, 0x00	; 0
     690:	48 ec       	ldi	r20, 0xC8	; 200
     692:	52 e4       	ldi	r21, 0x42	; 66
     694:	0e 94 ad 0b 	call	0x175a	; 0x175a <__divsf3>
     698:	60 93 12 02 	sts	0x0212, r22	; 0x800212 <current_speed>
     69c:	70 93 13 02 	sts	0x0213, r23	; 0x800213 <current_speed+0x1>
     6a0:	80 93 14 02 	sts	0x0214, r24	; 0x800214 <current_speed+0x2>
     6a4:	90 93 15 02 	sts	0x0215, r25	; 0x800215 <current_speed+0x3>
     6a8:	88 81       	ld	r24, Y
     6aa:	99 81       	ldd	r25, Y+1	; 0x01
     6ac:	81 15       	cp	r24, r1
     6ae:	94 40       	sbci	r25, 0x04	; 4
     6b0:	09 f0       	breq	.+2      	; 0x6b4 <can_process_message+0x80>
     6b2:	4e c0       	rjmp	.+156    	; 0x750 <can_process_message+0x11c>
     6b4:	6e 81       	ldd	r22, Y+6	; 0x06
     6b6:	6f 3f       	cpi	r22, 0xFF	; 255
     6b8:	e9 f0       	breq	.+58     	; 0x6f4 <can_process_message+0xc0>
     6ba:	70 e0       	ldi	r23, 0x00	; 0
     6bc:	76 2f       	mov	r23, r22
     6be:	66 27       	eor	r22, r22
     6c0:	8f 81       	ldd	r24, Y+7	; 0x07
     6c2:	68 0f       	add	r22, r24
     6c4:	71 1d       	adc	r23, r1
     6c6:	07 2e       	mov	r0, r23
     6c8:	00 0c       	add	r0, r0
     6ca:	88 0b       	sbc	r24, r24
     6cc:	99 0b       	sbc	r25, r25
     6ce:	0e 94 43 0c 	call	0x1886	; 0x1886 <__floatsisf>
     6d2:	20 e0       	ldi	r18, 0x00	; 0
     6d4:	30 e0       	ldi	r19, 0x00	; 0
     6d6:	40 e2       	ldi	r20, 0x20	; 32
     6d8:	51 e4       	ldi	r21, 0x41	; 65
     6da:	0e 94 ad 0b 	call	0x175a	; 0x175a <__divsf3>
     6de:	60 93 0e 02 	sts	0x020E, r22	; 0x80020e <momental_fuel>
     6e2:	70 93 0f 02 	sts	0x020F, r23	; 0x80020f <momental_fuel+0x1>
     6e6:	80 93 10 02 	sts	0x0210, r24	; 0x800210 <momental_fuel+0x2>
     6ea:	90 93 11 02 	sts	0x0211, r25	; 0x800211 <momental_fuel+0x3>
     6ee:	10 92 7a 03 	sts	0x037A, r1	; 0x80037a <__data_end>
     6f2:	0f c0       	rjmp	.+30     	; 0x712 <can_process_message+0xde>
     6f4:	80 e0       	ldi	r24, 0x00	; 0
     6f6:	90 e0       	ldi	r25, 0x00	; 0
     6f8:	a0 e8       	ldi	r26, 0x80	; 128
     6fa:	bf e3       	ldi	r27, 0x3F	; 63
     6fc:	80 93 0e 02 	sts	0x020E, r24	; 0x80020e <momental_fuel>
     700:	90 93 0f 02 	sts	0x020F, r25	; 0x80020f <momental_fuel+0x1>
     704:	a0 93 10 02 	sts	0x0210, r26	; 0x800210 <momental_fuel+0x2>
     708:	b0 93 11 02 	sts	0x0211, r27	; 0x800211 <momental_fuel+0x3>
     70c:	81 e0       	ldi	r24, 0x01	; 1
     70e:	80 93 7a 03 	sts	0x037A, r24	; 0x80037a <__data_end>
     712:	69 85       	ldd	r22, Y+9	; 0x09
     714:	70 e0       	ldi	r23, 0x00	; 0
     716:	80 e0       	ldi	r24, 0x00	; 0
     718:	90 e0       	ldi	r25, 0x00	; 0
     71a:	0e 94 41 0c 	call	0x1882	; 0x1882 <__floatunsisf>
     71e:	20 e0       	ldi	r18, 0x00	; 0
     720:	30 e0       	ldi	r19, 0x00	; 0
     722:	40 e2       	ldi	r20, 0x20	; 32
     724:	51 e4       	ldi	r21, 0x41	; 65
     726:	0e 94 ad 0b 	call	0x175a	; 0x175a <__divsf3>
     72a:	60 93 0a 02 	sts	0x020A, r22	; 0x80020a <average_fuel>
     72e:	70 93 0b 02 	sts	0x020B, r23	; 0x80020b <average_fuel+0x1>
     732:	80 93 0c 02 	sts	0x020C, r24	; 0x80020c <average_fuel+0x2>
     736:	90 93 0d 02 	sts	0x020D, r25	; 0x80020d <average_fuel+0x3>
     73a:	8a 85       	ldd	r24, Y+10	; 0x0a
     73c:	90 e0       	ldi	r25, 0x00	; 0
     73e:	98 2f       	mov	r25, r24
     740:	88 27       	eor	r24, r24
     742:	2b 85       	ldd	r18, Y+11	; 0x0b
     744:	82 0f       	add	r24, r18
     746:	91 1d       	adc	r25, r1
     748:	90 93 09 02 	sts	0x0209, r25	; 0x800209 <distance_left+0x1>
     74c:	80 93 08 02 	sts	0x0208, r24	; 0x800208 <distance_left>
     750:	88 81       	ld	r24, Y
     752:	99 81       	ldd	r25, Y+1	; 0x01
     754:	8f 38       	cpi	r24, 0x8F	; 143
     756:	92 40       	sbci	r25, 0x02	; 2
     758:	91 f4       	brne	.+36     	; 0x77e <can_process_message+0x14a>
     75a:	eb e7       	ldi	r30, 0x7B	; 123
     75c:	f3 e0       	ldi	r31, 0x03	; 3
     75e:	8c 81       	ldd	r24, Y+4	; 0x04
     760:	80 83       	st	Z, r24
     762:	8d 81       	ldd	r24, Y+5	; 0x05
     764:	81 83       	std	Z+1, r24	; 0x01
     766:	8e 81       	ldd	r24, Y+6	; 0x06
     768:	82 83       	std	Z+2, r24	; 0x02
     76a:	8f 81       	ldd	r24, Y+7	; 0x07
     76c:	83 83       	std	Z+3, r24	; 0x03
     76e:	88 85       	ldd	r24, Y+8	; 0x08
     770:	84 83       	std	Z+4, r24	; 0x04
     772:	89 85       	ldd	r24, Y+9	; 0x09
     774:	85 83       	std	Z+5, r24	; 0x05
     776:	8a 85       	ldd	r24, Y+10	; 0x0a
     778:	86 83       	std	Z+6, r24	; 0x06
     77a:	8b 85       	ldd	r24, Y+11	; 0x0b
     77c:	87 83       	std	Z+7, r24	; 0x07
     77e:	88 81       	ld	r24, Y
     780:	99 81       	ldd	r25, Y+1	; 0x01
     782:	80 39       	cpi	r24, 0x90	; 144
     784:	92 40       	sbci	r25, 0x02	; 2
     786:	41 f5       	brne	.+80     	; 0x7d8 <can_process_message+0x1a4>
     788:	e6 e1       	ldi	r30, 0x16	; 22
     78a:	f2 e0       	ldi	r31, 0x02	; 2
     78c:	8d 81       	ldd	r24, Y+5	; 0x05
     78e:	80 83       	st	Z, r24
     790:	8e 81       	ldd	r24, Y+6	; 0x06
     792:	81 83       	std	Z+1, r24	; 0x01
     794:	8f 81       	ldd	r24, Y+7	; 0x07
     796:	82 83       	std	Z+2, r24	; 0x02
     798:	88 85       	ldd	r24, Y+8	; 0x08
     79a:	83 83       	std	Z+3, r24	; 0x03
     79c:	89 85       	ldd	r24, Y+9	; 0x09
     79e:	84 83       	std	Z+4, r24	; 0x04
     7a0:	8a 85       	ldd	r24, Y+10	; 0x0a
     7a2:	85 83       	std	Z+5, r24	; 0x05
     7a4:	8b 85       	ldd	r24, Y+11	; 0x0b
     7a6:	86 83       	std	Z+6, r24	; 0x06
     7a8:	42 e2       	ldi	r20, 0x22	; 34
     7aa:	52 e0       	ldi	r21, 0x02	; 2
     7ac:	80 e0       	ldi	r24, 0x00	; 0
     7ae:	90 e0       	ldi	r25, 0x00	; 0
     7b0:	21 91       	ld	r18, Z+
     7b2:	82 0f       	add	r24, r18
     7b4:	91 1d       	adc	r25, r1
     7b6:	e4 17       	cp	r30, r20
     7b8:	f5 07       	cpc	r31, r21
     7ba:	d1 f7       	brne	.-12     	; 0x7b0 <can_process_message+0x17c>
     7bc:	20 91 84 03 	lds	r18, 0x0384	; 0x800384 <car_previous_msg>
     7c0:	30 91 85 03 	lds	r19, 0x0385	; 0x800385 <car_previous_msg+0x1>
     7c4:	82 17       	cp	r24, r18
     7c6:	93 07       	cpc	r25, r19
     7c8:	39 f0       	breq	.+14     	; 0x7d8 <can_process_message+0x1a4>
     7ca:	21 e0       	ldi	r18, 0x01	; 1
     7cc:	20 93 83 03 	sts	0x0383, r18	; 0x800383 <car_new_msg_flag>
     7d0:	90 93 85 03 	sts	0x0385, r25	; 0x800385 <car_previous_msg+0x1>
     7d4:	80 93 84 03 	sts	0x0384, r24	; 0x800384 <car_previous_msg>
     7d8:	88 81       	ld	r24, Y
     7da:	99 81       	ldd	r25, Y+1	; 0x01
     7dc:	81 39       	cpi	r24, 0x91	; 145
     7de:	92 40       	sbci	r25, 0x02	; 2
     7e0:	31 f5       	brne	.+76     	; 0x82e <can_process_message+0x1fa>
     7e2:	8d 81       	ldd	r24, Y+5	; 0x05
     7e4:	e6 e1       	ldi	r30, 0x16	; 22
     7e6:	f2 e0       	ldi	r31, 0x02	; 2
     7e8:	87 83       	std	Z+7, r24	; 0x07
     7ea:	8e 81       	ldd	r24, Y+6	; 0x06
     7ec:	80 87       	std	Z+8, r24	; 0x08
     7ee:	8f 81       	ldd	r24, Y+7	; 0x07
     7f0:	81 87       	std	Z+9, r24	; 0x09
     7f2:	88 85       	ldd	r24, Y+8	; 0x08
     7f4:	82 87       	std	Z+10, r24	; 0x0a
     7f6:	89 85       	ldd	r24, Y+9	; 0x09
     7f8:	83 87       	std	Z+11, r24	; 0x0b
     7fa:	8a 85       	ldd	r24, Y+10	; 0x0a
     7fc:	84 87       	std	Z+12, r24	; 0x0c
     7fe:	42 e2       	ldi	r20, 0x22	; 34
     800:	52 e0       	ldi	r21, 0x02	; 2
     802:	80 e0       	ldi	r24, 0x00	; 0
     804:	90 e0       	ldi	r25, 0x00	; 0
     806:	21 91       	ld	r18, Z+
     808:	82 0f       	add	r24, r18
     80a:	91 1d       	adc	r25, r1
     80c:	e4 17       	cp	r30, r20
     80e:	f5 07       	cpc	r31, r21
     810:	d1 f7       	brne	.-12     	; 0x806 <can_process_message+0x1d2>
     812:	20 91 84 03 	lds	r18, 0x0384	; 0x800384 <car_previous_msg>
     816:	30 91 85 03 	lds	r19, 0x0385	; 0x800385 <car_previous_msg+0x1>
     81a:	82 17       	cp	r24, r18
     81c:	93 07       	cpc	r25, r19
     81e:	39 f0       	breq	.+14     	; 0x82e <can_process_message+0x1fa>
     820:	21 e0       	ldi	r18, 0x01	; 1
     822:	20 93 83 03 	sts	0x0383, r18	; 0x800383 <car_new_msg_flag>
     826:	90 93 85 03 	sts	0x0385, r25	; 0x800385 <car_previous_msg+0x1>
     82a:	80 93 84 03 	sts	0x0384, r24	; 0x800384 <car_previous_msg>
     82e:	df 91       	pop	r29
     830:	cf 91       	pop	r28
     832:	08 95       	ret

00000834 <mcp2515_write_register>:
     834:	ef 92       	push	r14
     836:	ff 92       	push	r15
     838:	0f 93       	push	r16
     83a:	1f 93       	push	r17
     83c:	cf 93       	push	r28
     83e:	df 93       	push	r29
     840:	e8 2e       	mov	r14, r24
     842:	f6 2e       	mov	r15, r22
     844:	50 e0       	ldi	r21, 0x00	; 0
     846:	ea 01       	movw	r28, r20
     848:	cc 0f       	add	r28, r28
     84a:	dd 1f       	adc	r29, r29
     84c:	cc 0f       	add	r28, r28
     84e:	dd 1f       	adc	r29, r29
     850:	cc 0f       	add	r28, r28
     852:	dd 1f       	adc	r29, r29
     854:	4c 0f       	add	r20, r28
     856:	5d 1f       	adc	r21, r29
     858:	ea 01       	movw	r28, r20
     85a:	cd 5d       	subi	r28, 0xDD	; 221
     85c:	dd 4f       	sbci	r29, 0xFD	; 253
     85e:	e8 81       	ld	r30, Y
     860:	f9 81       	ldd	r31, Y+1	; 0x01
     862:	90 81       	ld	r25, Z
     864:	01 e0       	ldi	r16, 0x01	; 1
     866:	10 e0       	ldi	r17, 0x00	; 0
     868:	98 01       	movw	r18, r16
     86a:	0a 80       	ldd	r0, Y+2	; 0x02
     86c:	02 c0       	rjmp	.+4      	; 0x872 <mcp2515_write_register+0x3e>
     86e:	22 0f       	add	r18, r18
     870:	33 1f       	adc	r19, r19
     872:	0a 94       	dec	r0
     874:	e2 f7       	brpl	.-8      	; 0x86e <mcp2515_write_register+0x3a>
     876:	82 2f       	mov	r24, r18
     878:	80 95       	com	r24
     87a:	89 23       	and	r24, r25
     87c:	80 83       	st	Z, r24
     87e:	82 e0       	ldi	r24, 0x02	; 2
     880:	c2 dd       	rcall	.-1148   	; 0x406 <spi_putc>
     882:	8e 2d       	mov	r24, r14
     884:	c0 dd       	rcall	.-1152   	; 0x406 <spi_putc>
     886:	8f 2d       	mov	r24, r15
     888:	be dd       	rcall	.-1156   	; 0x406 <spi_putc>
     88a:	e8 81       	ld	r30, Y
     88c:	f9 81       	ldd	r31, Y+1	; 0x01
     88e:	80 81       	ld	r24, Z
     890:	0a 80       	ldd	r0, Y+2	; 0x02
     892:	02 c0       	rjmp	.+4      	; 0x898 <mcp2515_write_register+0x64>
     894:	00 0f       	add	r16, r16
     896:	11 1f       	adc	r17, r17
     898:	0a 94       	dec	r0
     89a:	e2 f7       	brpl	.-8      	; 0x894 <mcp2515_write_register+0x60>
     89c:	08 2b       	or	r16, r24
     89e:	00 83       	st	Z, r16
     8a0:	df 91       	pop	r29
     8a2:	cf 91       	pop	r28
     8a4:	1f 91       	pop	r17
     8a6:	0f 91       	pop	r16
     8a8:	ff 90       	pop	r15
     8aa:	ef 90       	pop	r14
     8ac:	08 95       	ret

000008ae <mcp2515_read_rx_status>:
     8ae:	ef 92       	push	r14
     8b0:	ff 92       	push	r15
     8b2:	0f 93       	push	r16
     8b4:	1f 93       	push	r17
     8b6:	cf 93       	push	r28
     8b8:	df 93       	push	r29
     8ba:	ff b6       	in	r15, 0x3f	; 63
     8bc:	f8 94       	cli
     8be:	90 e0       	ldi	r25, 0x00	; 0
     8c0:	ec 01       	movw	r28, r24
     8c2:	cc 0f       	add	r28, r28
     8c4:	dd 1f       	adc	r29, r29
     8c6:	cc 0f       	add	r28, r28
     8c8:	dd 1f       	adc	r29, r29
     8ca:	cc 0f       	add	r28, r28
     8cc:	dd 1f       	adc	r29, r29
     8ce:	8c 0f       	add	r24, r28
     8d0:	9d 1f       	adc	r25, r29
     8d2:	ec 01       	movw	r28, r24
     8d4:	cd 5d       	subi	r28, 0xDD	; 221
     8d6:	dd 4f       	sbci	r29, 0xFD	; 253
     8d8:	e8 81       	ld	r30, Y
     8da:	f9 81       	ldd	r31, Y+1	; 0x01
     8dc:	90 81       	ld	r25, Z
     8de:	01 e0       	ldi	r16, 0x01	; 1
     8e0:	10 e0       	ldi	r17, 0x00	; 0
     8e2:	98 01       	movw	r18, r16
     8e4:	0a 80       	ldd	r0, Y+2	; 0x02
     8e6:	02 c0       	rjmp	.+4      	; 0x8ec <mcp2515_read_rx_status+0x3e>
     8e8:	22 0f       	add	r18, r18
     8ea:	33 1f       	adc	r19, r19
     8ec:	0a 94       	dec	r0
     8ee:	e2 f7       	brpl	.-8      	; 0x8e8 <mcp2515_read_rx_status+0x3a>
     8f0:	82 2f       	mov	r24, r18
     8f2:	80 95       	com	r24
     8f4:	89 23       	and	r24, r25
     8f6:	80 83       	st	Z, r24
     8f8:	80 eb       	ldi	r24, 0xB0	; 176
     8fa:	85 dd       	rcall	.-1270   	; 0x406 <spi_putc>
     8fc:	8f ef       	ldi	r24, 0xFF	; 255
     8fe:	83 dd       	rcall	.-1274   	; 0x406 <spi_putc>
     900:	e8 2e       	mov	r14, r24
     902:	8f ef       	ldi	r24, 0xFF	; 255
     904:	80 dd       	rcall	.-1280   	; 0x406 <spi_putc>
     906:	e8 81       	ld	r30, Y
     908:	f9 81       	ldd	r31, Y+1	; 0x01
     90a:	20 81       	ld	r18, Z
     90c:	c8 01       	movw	r24, r16
     90e:	0a 80       	ldd	r0, Y+2	; 0x02
     910:	02 c0       	rjmp	.+4      	; 0x916 <mcp2515_read_rx_status+0x68>
     912:	88 0f       	add	r24, r24
     914:	99 1f       	adc	r25, r25
     916:	0a 94       	dec	r0
     918:	e2 f7       	brpl	.-8      	; 0x912 <mcp2515_read_rx_status+0x64>
     91a:	82 2b       	or	r24, r18
     91c:	80 83       	st	Z, r24
     91e:	ff be       	out	0x3f, r15	; 63
     920:	8e 2d       	mov	r24, r14
     922:	df 91       	pop	r29
     924:	cf 91       	pop	r28
     926:	1f 91       	pop	r17
     928:	0f 91       	pop	r16
     92a:	ff 90       	pop	r15
     92c:	ef 90       	pop	r14
     92e:	08 95       	ret

00000930 <mcp2515_bit_modify>:
     930:	df 92       	push	r13
     932:	ef 92       	push	r14
     934:	ff 92       	push	r15
     936:	0f 93       	push	r16
     938:	1f 93       	push	r17
     93a:	cf 93       	push	r28
     93c:	df 93       	push	r29
     93e:	d8 2e       	mov	r13, r24
     940:	e6 2e       	mov	r14, r22
     942:	f4 2e       	mov	r15, r20
     944:	30 e0       	ldi	r19, 0x00	; 0
     946:	e9 01       	movw	r28, r18
     948:	cc 0f       	add	r28, r28
     94a:	dd 1f       	adc	r29, r29
     94c:	cc 0f       	add	r28, r28
     94e:	dd 1f       	adc	r29, r29
     950:	cc 0f       	add	r28, r28
     952:	dd 1f       	adc	r29, r29
     954:	2c 0f       	add	r18, r28
     956:	3d 1f       	adc	r19, r29
     958:	e9 01       	movw	r28, r18
     95a:	cd 5d       	subi	r28, 0xDD	; 221
     95c:	dd 4f       	sbci	r29, 0xFD	; 253
     95e:	e8 81       	ld	r30, Y
     960:	f9 81       	ldd	r31, Y+1	; 0x01
     962:	90 81       	ld	r25, Z
     964:	01 e0       	ldi	r16, 0x01	; 1
     966:	10 e0       	ldi	r17, 0x00	; 0
     968:	98 01       	movw	r18, r16
     96a:	0a 80       	ldd	r0, Y+2	; 0x02
     96c:	02 c0       	rjmp	.+4      	; 0x972 <mcp2515_bit_modify+0x42>
     96e:	22 0f       	add	r18, r18
     970:	33 1f       	adc	r19, r19
     972:	0a 94       	dec	r0
     974:	e2 f7       	brpl	.-8      	; 0x96e <mcp2515_bit_modify+0x3e>
     976:	82 2f       	mov	r24, r18
     978:	80 95       	com	r24
     97a:	89 23       	and	r24, r25
     97c:	80 83       	st	Z, r24
     97e:	85 e0       	ldi	r24, 0x05	; 5
     980:	42 dd       	rcall	.-1404   	; 0x406 <spi_putc>
     982:	8d 2d       	mov	r24, r13
     984:	40 dd       	rcall	.-1408   	; 0x406 <spi_putc>
     986:	8e 2d       	mov	r24, r14
     988:	3e dd       	rcall	.-1412   	; 0x406 <spi_putc>
     98a:	8f 2d       	mov	r24, r15
     98c:	3c dd       	rcall	.-1416   	; 0x406 <spi_putc>
     98e:	e8 81       	ld	r30, Y
     990:	f9 81       	ldd	r31, Y+1	; 0x01
     992:	20 81       	ld	r18, Z
     994:	c8 01       	movw	r24, r16
     996:	0a 80       	ldd	r0, Y+2	; 0x02
     998:	02 c0       	rjmp	.+4      	; 0x99e <mcp2515_bit_modify+0x6e>
     99a:	88 0f       	add	r24, r24
     99c:	99 1f       	adc	r25, r25
     99e:	0a 94       	dec	r0
     9a0:	e2 f7       	brpl	.-8      	; 0x99a <mcp2515_bit_modify+0x6a>
     9a2:	82 2b       	or	r24, r18
     9a4:	80 83       	st	Z, r24
     9a6:	df 91       	pop	r29
     9a8:	cf 91       	pop	r28
     9aa:	1f 91       	pop	r17
     9ac:	0f 91       	pop	r16
     9ae:	ff 90       	pop	r15
     9b0:	ef 90       	pop	r14
     9b2:	df 90       	pop	r13
     9b4:	08 95       	ret

000009b6 <MCP2515_init>:
     9b6:	0f 93       	push	r16
     9b8:	1f 93       	push	r17
     9ba:	cf 93       	push	r28
     9bc:	df 93       	push	r29
     9be:	c8 2f       	mov	r28, r24
     9c0:	df b7       	in	r29, 0x3f	; 63
     9c2:	f8 94       	cli
     9c4:	26 dd       	rcall	.-1460   	; 0x412 <mcp2515_soft_reset>
     9c6:	0c 2f       	mov	r16, r28
     9c8:	10 e0       	ldi	r17, 0x00	; 0
     9ca:	c8 01       	movw	r24, r16
     9cc:	88 0f       	add	r24, r24
     9ce:	99 1f       	adc	r25, r25
     9d0:	88 0f       	add	r24, r24
     9d2:	99 1f       	adc	r25, r25
     9d4:	88 0f       	add	r24, r24
     9d6:	99 1f       	adc	r25, r25
     9d8:	08 0f       	add	r16, r24
     9da:	19 1f       	adc	r17, r25
     9dc:	0d 5d       	subi	r16, 0xDD	; 221
     9de:	1d 4f       	sbci	r17, 0xFD	; 253
     9e0:	4c 2f       	mov	r20, r28
     9e2:	f8 01       	movw	r30, r16
     9e4:	66 81       	ldd	r22, Z+6	; 0x06
     9e6:	8a e2       	ldi	r24, 0x2A	; 42
     9e8:	25 df       	rcall	.-438    	; 0x834 <mcp2515_write_register>
     9ea:	4c 2f       	mov	r20, r28
     9ec:	f8 01       	movw	r30, r16
     9ee:	67 81       	ldd	r22, Z+7	; 0x07
     9f0:	89 e2       	ldi	r24, 0x29	; 41
     9f2:	20 df       	rcall	.-448    	; 0x834 <mcp2515_write_register>
     9f4:	4c 2f       	mov	r20, r28
     9f6:	f8 01       	movw	r30, r16
     9f8:	60 85       	ldd	r22, Z+8	; 0x08
     9fa:	88 e2       	ldi	r24, 0x28	; 40
     9fc:	1b df       	rcall	.-458    	; 0x834 <mcp2515_write_register>
     9fe:	4c 2f       	mov	r20, r28
     a00:	63 e0       	ldi	r22, 0x03	; 3
     a02:	8b e2       	ldi	r24, 0x2B	; 43
     a04:	17 df       	rcall	.-466    	; 0x834 <mcp2515_write_register>
     a06:	4c 2f       	mov	r20, r28
     a08:	63 e0       	ldi	r22, 0x03	; 3
     a0a:	8b e2       	ldi	r24, 0x2B	; 43
     a0c:	13 df       	rcall	.-474    	; 0x834 <mcp2515_write_register>
     a0e:	4c 2f       	mov	r20, r28
     a10:	60 e2       	ldi	r22, 0x20	; 32
     a12:	80 e6       	ldi	r24, 0x60	; 96
     a14:	0f df       	rcall	.-482    	; 0x834 <mcp2515_write_register>
     a16:	4c 2f       	mov	r20, r28
     a18:	60 e2       	ldi	r22, 0x20	; 32
     a1a:	80 e7       	ldi	r24, 0x70	; 112
     a1c:	0b df       	rcall	.-490    	; 0x834 <mcp2515_write_register>
     a1e:	4c 2f       	mov	r20, r28
     a20:	69 ef       	ldi	r22, 0xF9	; 249
     a22:	80 e2       	ldi	r24, 0x20	; 32
     a24:	07 df       	rcall	.-498    	; 0x834 <mcp2515_write_register>
     a26:	4c 2f       	mov	r20, r28
     a28:	60 ee       	ldi	r22, 0xE0	; 224
     a2a:	81 e2       	ldi	r24, 0x21	; 33
     a2c:	03 df       	rcall	.-506    	; 0x834 <mcp2515_write_register>
     a2e:	4c 2f       	mov	r20, r28
     a30:	60 e0       	ldi	r22, 0x00	; 0
     a32:	82 e2       	ldi	r24, 0x22	; 34
     a34:	ff de       	rcall	.-514    	; 0x834 <mcp2515_write_register>
     a36:	4c 2f       	mov	r20, r28
     a38:	60 e0       	ldi	r22, 0x00	; 0
     a3a:	83 e2       	ldi	r24, 0x23	; 35
     a3c:	fb de       	rcall	.-522    	; 0x834 <mcp2515_write_register>
     a3e:	4c 2f       	mov	r20, r28
     a40:	6f e3       	ldi	r22, 0x3F	; 63
     a42:	84 e2       	ldi	r24, 0x24	; 36
     a44:	f7 de       	rcall	.-530    	; 0x834 <mcp2515_write_register>
     a46:	4c 2f       	mov	r20, r28
     a48:	60 ec       	ldi	r22, 0xC0	; 192
     a4a:	85 e2       	ldi	r24, 0x25	; 37
     a4c:	f3 de       	rcall	.-538    	; 0x834 <mcp2515_write_register>
     a4e:	4c 2f       	mov	r20, r28
     a50:	60 e0       	ldi	r22, 0x00	; 0
     a52:	86 e2       	ldi	r24, 0x26	; 38
     a54:	ef de       	rcall	.-546    	; 0x834 <mcp2515_write_register>
     a56:	4c 2f       	mov	r20, r28
     a58:	60 e0       	ldi	r22, 0x00	; 0
     a5a:	87 e2       	ldi	r24, 0x27	; 39
     a5c:	eb de       	rcall	.-554    	; 0x834 <mcp2515_write_register>
     a5e:	4c 2f       	mov	r20, r28
     a60:	67 e5       	ldi	r22, 0x57	; 87
     a62:	80 e0       	ldi	r24, 0x00	; 0
     a64:	e7 de       	rcall	.-562    	; 0x834 <mcp2515_write_register>
     a66:	4c 2f       	mov	r20, r28
     a68:	60 ee       	ldi	r22, 0xE0	; 224
     a6a:	81 e0       	ldi	r24, 0x01	; 1
     a6c:	e3 de       	rcall	.-570    	; 0x834 <mcp2515_write_register>
     a6e:	4c 2f       	mov	r20, r28
     a70:	67 e7       	ldi	r22, 0x77	; 119
     a72:	84 e0       	ldi	r24, 0x04	; 4
     a74:	df de       	rcall	.-578    	; 0x834 <mcp2515_write_register>
     a76:	4c 2f       	mov	r20, r28
     a78:	60 e4       	ldi	r22, 0x40	; 64
     a7a:	85 e0       	ldi	r24, 0x05	; 5
     a7c:	db de       	rcall	.-586    	; 0x834 <mcp2515_write_register>
     a7e:	4c 2f       	mov	r20, r28
     a80:	60 e0       	ldi	r22, 0x00	; 0
     a82:	88 e0       	ldi	r24, 0x08	; 8
     a84:	d7 de       	rcall	.-594    	; 0x834 <mcp2515_write_register>
     a86:	4c 2f       	mov	r20, r28
     a88:	60 e0       	ldi	r22, 0x00	; 0
     a8a:	89 e0       	ldi	r24, 0x09	; 9
     a8c:	d3 de       	rcall	.-602    	; 0x834 <mcp2515_write_register>
     a8e:	4c 2f       	mov	r20, r28
     a90:	62 e1       	ldi	r22, 0x12	; 18
     a92:	80 e1       	ldi	r24, 0x10	; 16
     a94:	cf de       	rcall	.-610    	; 0x834 <mcp2515_write_register>
     a96:	4c 2f       	mov	r20, r28
     a98:	60 e0       	ldi	r22, 0x00	; 0
     a9a:	81 e1       	ldi	r24, 0x11	; 17
     a9c:	cb de       	rcall	.-618    	; 0x834 <mcp2515_write_register>
     a9e:	4c 2f       	mov	r20, r28
     aa0:	60 e0       	ldi	r22, 0x00	; 0
     aa2:	8c e0       	ldi	r24, 0x0C	; 12
     aa4:	c7 de       	rcall	.-626    	; 0x834 <mcp2515_write_register>
     aa6:	4c 2f       	mov	r20, r28
     aa8:	60 e0       	ldi	r22, 0x00	; 0
     aaa:	8d e0       	ldi	r24, 0x0D	; 13
     aac:	c3 de       	rcall	.-634    	; 0x834 <mcp2515_write_register>
     aae:	2c 2f       	mov	r18, r28
     ab0:	44 e0       	ldi	r20, 0x04	; 4
     ab2:	67 ee       	ldi	r22, 0xE7	; 231
     ab4:	8f e0       	ldi	r24, 0x0F	; 15
     ab6:	3c df       	rcall	.-392    	; 0x930 <mcp2515_bit_modify>
     ab8:	df bf       	out	0x3f, r29	; 63
     aba:	df 91       	pop	r29
     abc:	cf 91       	pop	r28
     abe:	1f 91       	pop	r17
     ac0:	0f 91       	pop	r16
     ac2:	08 95       	ret

00000ac4 <can_read_message>:

uint8_t can_read_message(CANMessage * p_message,uint8_t module)
{
     ac4:	bf 92       	push	r11
     ac6:	cf 92       	push	r12
     ac8:	df 92       	push	r13
     aca:	ef 92       	push	r14
     acc:	ff 92       	push	r15
     ace:	0f 93       	push	r16
     ad0:	1f 93       	push	r17
     ad2:	cf 93       	push	r28
     ad4:	df 93       	push	r29
     ad6:	6c 01       	movw	r12, r24
     ad8:	06 2f       	mov	r16, r22
	// Read status
		uint8_t status = mcp2515_read_rx_status (module) ;
     ada:	86 2f       	mov	r24, r22
     adc:	e8 de       	rcall	.-560    	; 0x8ae <mcp2515_read_rx_status>
     ade:	18 2f       	mov	r17, r24

		if ( status&(1<<6) )
     ae0:	28 2f       	mov	r18, r24
     ae2:	20 74       	andi	r18, 0x40	; 64
     ae4:	b2 2e       	mov	r11, r18
     ae6:	86 ff       	sbrs	r24, 6
		{
			// message in buffer 0

			mcp2515_enable_module(module); // CS Low
     ae8:	05 c0       	rjmp	.+10     	; 0xaf4 <can_read_message+0x30>
			spi_putc ( SPI_READ_RX ) ;
     aea:	80 2f       	mov	r24, r16
     aec:	fc dc       	rcall	.-1544   	; 0x4e6 <mcp2515_enable_module>
     aee:	80 e9       	ldi	r24, 0x90	; 144
     af0:	8a dc       	rcall	.-1772   	; 0x406 <spi_putc>
		}
		else if ( status&(1<<7) )
     af2:	07 c0       	rjmp	.+14     	; 0xb02 <can_read_message+0x3e>
		{
			// message in buffer 1

			mcp2515_enable_module(module);  // CS Low
     af4:	88 23       	and	r24, r24
			spi_putc ( SPI_READ_RX | 0x04 ) ;
     af6:	0c f0       	brlt	.+2      	; 0xafa <can_read_message+0x36>
     af8:	4e c0       	rjmp	.+156    	; 0xb96 <can_read_message+0xd2>
     afa:	80 2f       	mov	r24, r16
			/* Error: No new message exists */
			return 0xff;
		}

		// Read the standard ID
		p_message-> id = ( uint16_t ) spi_putc ( 0xff ) << 3 ;
     afc:	f4 dc       	rcall	.-1560   	; 0x4e6 <mcp2515_enable_module>
     afe:	84 e9       	ldi	r24, 0x94	; 148
     b00:	82 dc       	rcall	.-1788   	; 0x406 <spi_putc>
     b02:	8f ef       	ldi	r24, 0xFF	; 255
     b04:	80 dc       	rcall	.-1792   	; 0x406 <spi_putc>
     b06:	e8 e0       	ldi	r30, 0x08	; 8
     b08:	8e 9f       	mul	r24, r30
     b0a:	c0 01       	movw	r24, r0
     b0c:	11 24       	eor	r1, r1
		p_message-> id |= ( uint16_t ) spi_putc ( 0xff ) >> 5 ;
     b0e:	f6 01       	movw	r30, r12
     b10:	91 83       	std	Z+1, r25	; 0x01
     b12:	80 83       	st	Z, r24
     b14:	8f ef       	ldi	r24, 0xFF	; 255
     b16:	77 dc       	rcall	.-1810   	; 0x406 <spi_putc>
     b18:	28 2f       	mov	r18, r24
     b1a:	22 95       	swap	r18
     b1c:	26 95       	lsr	r18
     b1e:	27 70       	andi	r18, 0x07	; 7
     b20:	f6 01       	movw	r30, r12

		spi_putc ( 0xff ) ;
     b22:	80 81       	ld	r24, Z
     b24:	91 81       	ldd	r25, Z+1	; 0x01
     b26:	82 2b       	or	r24, r18
		spi_putc ( 0xff ) ;
     b28:	91 83       	std	Z+1, r25	; 0x01
     b2a:	80 83       	st	Z, r24
     b2c:	8f ef       	ldi	r24, 0xFF	; 255

		// Read the length
		uint8_t length =spi_putc(0xff); 
     b2e:	6b dc       	rcall	.-1834   	; 0x406 <spi_putc>
     b30:	8f ef       	ldi	r24, 0xFF	; 255
     b32:	69 dc       	rcall	.-1838   	; 0x406 <spi_putc>
		length&=0x0f;
     b34:	8f ef       	ldi	r24, 0xFF	; 255
		p_message-> length = length;
     b36:	67 dc       	rcall	.-1842   	; 0x406 <spi_putc>
     b38:	8f 70       	andi	r24, 0x0F	; 15

		// Read data
		for ( uint8_t i = 0 ; i <length; i ++ ) {
     b3a:	f6 01       	movw	r30, r12
     b3c:	83 83       	std	Z+3, r24	; 0x03
     b3e:	88 23       	and	r24, r24
     b40:	81 f0       	breq	.+32     	; 0xb62 <can_read_message+0x9e>
     b42:	e6 01       	movw	r28, r12
     b44:	24 96       	adiw	r28, 0x04	; 4
     b46:	81 50       	subi	r24, 0x01	; 1
     b48:	e8 2e       	mov	r14, r24
     b4a:	f1 2c       	mov	r15, r1
     b4c:	f5 e0       	ldi	r31, 0x05	; 5
			p_message-> data [ i ] = spi_putc ( 0xff ) ;
     b4e:	ef 0e       	add	r14, r31
     b50:	f1 1c       	adc	r15, r1
     b52:	ec 0c       	add	r14, r12
     b54:	fd 1c       	adc	r15, r13
		uint8_t length =spi_putc(0xff); 
		length&=0x0f;
		p_message-> length = length;

		// Read data
		for ( uint8_t i = 0 ; i <length; i ++ ) {
     b56:	8f ef       	ldi	r24, 0xFF	; 255
     b58:	56 dc       	rcall	.-1876   	; 0x406 <spi_putc>
     b5a:	89 93       	st	Y+, r24
			p_message-> data [ i ] = spi_putc ( 0xff ) ;
		}

		mcp2515_release_module(module);
     b5c:	ce 15       	cp	r28, r14
     b5e:	df 05       	cpc	r29, r15
     b60:	d1 f7       	brne	.-12     	; 0xb56 <can_read_message+0x92>

		if (status&(1<<3)) {
     b62:	80 2f       	mov	r24, r16
			p_message-> rtr = 1 ;
     b64:	dc dc       	rcall	.-1608   	; 0x51e <mcp2515_release_module>
     b66:	13 ff       	sbrs	r17, 3
     b68:	04 c0       	rjmp	.+8      	; 0xb72 <can_read_message+0xae>
			} else {
			p_message-> rtr = 0 ;
     b6a:	81 e0       	ldi	r24, 0x01	; 1
		}

		// Cancel the interrupt flag
		if (status&(1<<6)) {
     b6c:	f6 01       	movw	r30, r12
			mcp2515_bit_modify ( CANINTF, ( 1 << RX0IF ) , 0 ,module) ;
     b6e:	82 83       	std	Z+2, r24	; 0x02
     b70:	02 c0       	rjmp	.+4      	; 0xb76 <can_read_message+0xb2>
     b72:	f6 01       	movw	r30, r12
     b74:	12 82       	std	Z+2, r1	; 0x02
     b76:	bb 20       	and	r11, r11
     b78:	31 f0       	breq	.+12     	; 0xb86 <can_read_message+0xc2>
     b7a:	20 2f       	mov	r18, r16
			} else {
			mcp2515_bit_modify ( CANINTF, ( 1 << RX1IF ) , 0 ,module) ;
     b7c:	40 e0       	ldi	r20, 0x00	; 0
     b7e:	61 e0       	ldi	r22, 0x01	; 1
     b80:	8c e2       	ldi	r24, 0x2C	; 44
     b82:	d6 de       	rcall	.-596    	; 0x930 <mcp2515_bit_modify>
     b84:	05 c0       	rjmp	.+10     	; 0xb90 <can_read_message+0xcc>
     b86:	20 2f       	mov	r18, r16
		}

		return (status&0x07) ;
     b88:	40 e0       	ldi	r20, 0x00	; 0
     b8a:	62 e0       	ldi	r22, 0x02	; 2
     b8c:	8c e2       	ldi	r24, 0x2C	; 44
			mcp2515_enable_module(module);  // CS Low
			spi_putc ( SPI_READ_RX | 0x04 ) ;
		}
		else {
			/* Error: No new message exists */
			return 0xff;
     b8e:	d0 de       	rcall	.-608    	; 0x930 <mcp2515_bit_modify>
		}

		return (status&0x07) ;
	
	
}
     b90:	81 2f       	mov	r24, r17
     b92:	87 70       	andi	r24, 0x07	; 7
     b94:	01 c0       	rjmp	.+2      	; 0xb98 <can_read_message+0xd4>
     b96:	8f ef       	ldi	r24, 0xFF	; 255
     b98:	df 91       	pop	r29
     b9a:	cf 91       	pop	r28
     b9c:	1f 91       	pop	r17
     b9e:	0f 91       	pop	r16
     ba0:	ff 90       	pop	r15
     ba2:	ef 90       	pop	r14
     ba4:	df 90       	pop	r13
     ba6:	cf 90       	pop	r12
     ba8:	bf 90       	pop	r11
     baa:	08 95       	ret

00000bac <Idle>:
}



inline void  Idle(void)
{
     bac:	08 95       	ret

00000bae <InitRTOS>:




inline void InitRTOS(void)
{
     bae:	80 e0       	ldi	r24, 0x00	; 0
     bb0:	90 e0       	ldi	r25, 0x00	; 0
	u08	index;

	for(index=0;index!=TaskQueueSize+1;index++)
	{
		TaskQueue[index] = Idle;
     bb2:	26 ed       	ldi	r18, 0xD6	; 214
     bb4:	35 e0       	ldi	r19, 0x05	; 5
     bb6:	fc 01       	movw	r30, r24
     bb8:	ee 0f       	add	r30, r30
     bba:	ff 1f       	adc	r31, r31
     bbc:	eb 5a       	subi	r30, 0xAB	; 171
     bbe:	fb 4f       	sbci	r31, 0xFB	; 251
     bc0:	31 83       	std	Z+1, r19	; 0x01
     bc2:	20 83       	st	Z, r18
     bc4:	01 96       	adiw	r24, 0x01	; 1

inline void InitRTOS(void)
{
	u08	index;

	for(index=0;index!=TaskQueueSize+1;index++)
     bc6:	85 31       	cpi	r24, 0x15	; 21
     bc8:	91 05       	cpc	r25, r1
     bca:	a9 f7       	brne	.-22     	; 0xbb6 <InitRTOS+0x8>
     bcc:	80 e0       	ldi	r24, 0x00	; 0
     bce:	90 e0       	ldi	r25, 0x00	; 0
	}


	for(index=0;index!=MainTimerQueueSize+1;index++) 
	{
		MainTimer[index].GoToTask = Idle;
     bd0:	26 ed       	ldi	r18, 0xD6	; 214
     bd2:	35 e0       	ldi	r19, 0x05	; 5
     bd4:	fc 01       	movw	r30, r24
     bd6:	ee 0f       	add	r30, r30
     bd8:	ff 1f       	adc	r31, r31
     bda:	ee 0f       	add	r30, r30
     bdc:	ff 1f       	adc	r31, r31
     bde:	eb 5e       	subi	r30, 0xEB	; 235
     be0:	fb 4f       	sbci	r31, 0xFB	; 251
     be2:	31 83       	std	Z+1, r19	; 0x01
     be4:	20 83       	st	Z, r18
		MainTimer[index].Time = 0;
     be6:	13 82       	std	Z+3, r1	; 0x03
     be8:	12 82       	std	Z+2, r1	; 0x02
     bea:	01 96       	adiw	r24, 0x01	; 1
	{
		TaskQueue[index] = Idle;
	}


	for(index=0;index!=MainTimerQueueSize+1;index++) 
     bec:	80 31       	cpi	r24, 0x10	; 16
     bee:	91 05       	cpc	r25, r1
     bf0:	89 f7       	brne	.-30     	; 0xbd4 <InitRTOS+0x26>
	{
		MainTimer[index].GoToTask = Idle;
		MainTimer[index].Time = 0;
	}
}
     bf2:	08 95       	ret

00000bf4 <SetTask>:
{

	u08		index = 0;
	u08		nointerrupted = 0;

	if (STATUS_REG & (1<<Interrupt_Flag))  
     bf4:	0f b6       	in	r0, 0x3f	; 63
     bf6:	07 fe       	sbrs	r0, 7
     bf8:	0c c0       	rjmp	.+24     	; 0xc12 <SetTask+0x1e>
	{
		Disable_Interrupt
     bfa:	f8 94       	cli
		nointerrupted = 1;					
     bfc:	a1 e0       	ldi	r26, 0x01	; 1
     bfe:	0a c0       	rjmp	.+20     	; 0xc14 <SetTask+0x20>
     c00:	2f 5f       	subi	r18, 0xFF	; 255
     c02:	3f 4f       	sbci	r19, 0xFF	; 255
	}

	while(TaskQueue[index]!=Idle) 			
	{									
		index++;
		if (index==TaskQueueSize+1) 	
     c04:	25 31       	cpi	r18, 0x15	; 21
     c06:	31 05       	cpc	r19, r1
     c08:	39 f4       	brne	.+14     	; 0xc18 <SetTask+0x24>
		{
			if (nointerrupted)	Enable_Interrupt 
     c0a:	aa 23       	and	r26, r26
     c0c:	d1 f0       	breq	.+52     	; 0xc42 <SetTask+0x4e>
     c0e:	78 94       	sei
     c10:	08 95       	ret

void SetTask(TPTR TS)
{

	u08		index = 0;
	u08		nointerrupted = 0;
     c12:	a0 e0       	ldi	r26, 0x00	; 0
     c14:	20 e0       	ldi	r18, 0x00	; 0
     c16:	30 e0       	ldi	r19, 0x00	; 0
	{
		Disable_Interrupt
		nointerrupted = 1;					
	}

	while(TaskQueue[index]!=Idle) 			
     c18:	b9 01       	movw	r22, r18
     c1a:	f9 01       	movw	r30, r18
     c1c:	ee 0f       	add	r30, r30
     c1e:	ff 1f       	adc	r31, r31
     c20:	eb 5a       	subi	r30, 0xAB	; 171
     c22:	fb 4f       	sbci	r31, 0xFB	; 251
     c24:	40 81       	ld	r20, Z
     c26:	51 81       	ldd	r21, Z+1	; 0x01
     c28:	46 5d       	subi	r20, 0xD6	; 214
     c2a:	55 40       	sbci	r21, 0x05	; 5
     c2c:	49 f7       	brne	.-46     	; 0xc00 <SetTask+0xc>
			if (nointerrupted)	Enable_Interrupt 
			return;								
		}
	}
	
	TaskQueue[index] = TS;			
     c2e:	66 0f       	add	r22, r22
     c30:	77 1f       	adc	r23, r23
     c32:	fb 01       	movw	r30, r22
     c34:	eb 5a       	subi	r30, 0xAB	; 171
     c36:	fb 4f       	sbci	r31, 0xFB	; 251
     c38:	91 83       	std	Z+1, r25	; 0x01
     c3a:	80 83       	st	Z, r24
	if (nointerrupted) Enable_Interrupt
     c3c:	aa 23       	and	r26, r26
     c3e:	09 f0       	breq	.+2      	; 0xc42 <SetTask+0x4e>
     c40:	78 94       	sei
     c42:	08 95       	ret

00000c44 <SetTimerTask>:
}


void SetTimerTask(TPTR TS, u16 NewTime)
{
     c44:	cf 93       	push	r28
	u08		index=0;
	u08		nointerrupted = 0;

	if (STATUS_REG & (1<<Interrupt_Flag)) 		
     c46:	0f b6       	in	r0, 0x3f	; 63
     c48:	07 fe       	sbrs	r0, 7
     c4a:	60 c0       	rjmp	.+192    	; 0xd0c <SetTimerTask+0xc8>
	{
		Disable_Interrupt
     c4c:	f8 94       	cli
	}


	for(index=0;index!=MainTimerQueueSize+1;++index)
	{
		if(MainTimer[index].GoToTask == TS)			
     c4e:	20 91 15 04 	lds	r18, 0x0415	; 0x800415 <MainTimer>
     c52:	30 91 16 04 	lds	r19, 0x0416	; 0x800416 <MainTimer+0x1>
     c56:	82 17       	cp	r24, r18
     c58:	93 07       	cpc	r25, r19
     c5a:	09 f4       	brne	.+2      	; 0xc5e <SetTimerTask+0x1a>
     c5c:	4d c0       	rjmp	.+154    	; 0xcf8 <SetTimerTask+0xb4>
	u08		nointerrupted = 0;

	if (STATUS_REG & (1<<Interrupt_Flag)) 		
	{
		Disable_Interrupt
		nointerrupted = 1;
     c5e:	c1 e0       	ldi	r28, 0x01	; 1
     c60:	13 c0       	rjmp	.+38     	; 0xc88 <SetTimerTask+0x44>
	}


	for(index=0;index!=MainTimerQueueSize+1;++index)
	{
		if(MainTimer[index].GoToTask == TS)			
     c62:	f9 01       	movw	r30, r18
     c64:	ee 0f       	add	r30, r30
     c66:	ff 1f       	adc	r31, r31
     c68:	ee 0f       	add	r30, r30
     c6a:	ff 1f       	adc	r31, r31
     c6c:	eb 5e       	subi	r30, 0xEB	; 235
     c6e:	fb 4f       	sbci	r31, 0xFB	; 251
     c70:	40 81       	ld	r20, Z
     c72:	51 81       	ldd	r21, Z+1	; 0x01
     c74:	48 17       	cp	r20, r24
     c76:	59 07       	cpc	r21, r25
     c78:	51 f4       	brne	.+20     	; 0xc8e <SetTimerTask+0x4a>
		{
			MainTimer[index].Time = NewTime;		
     c7a:	73 83       	std	Z+3, r23	; 0x03
     c7c:	62 83       	std	Z+2, r22	; 0x02
			if (nointerrupted) 	Enable_Interrupt	
     c7e:	cc 23       	and	r28, r28
     c80:	09 f4       	brne	.+2      	; 0xc84 <SetTimerTask+0x40>
     c82:	4d c0       	rjmp	.+154    	; 0xd1e <SetTimerTask+0xda>
     c84:	78 94       	sei
     c86:	4b c0       	rjmp	.+150    	; 0xd1e <SetTimerTask+0xda>
	if (nointerrupted) Enable_Interrupt
}


void SetTimerTask(TPTR TS, u16 NewTime)
{
     c88:	21 e0       	ldi	r18, 0x01	; 1
     c8a:	30 e0       	ldi	r19, 0x00	; 0
     c8c:	ea cf       	rjmp	.-44     	; 0xc62 <SetTimerTask+0x1e>
     c8e:	2f 5f       	subi	r18, 0xFF	; 255
     c90:	3f 4f       	sbci	r19, 0xFF	; 255
		Disable_Interrupt
		nointerrupted = 1;
	}


	for(index=0;index!=MainTimerQueueSize+1;++index)
     c92:	20 31       	cpi	r18, 0x10	; 16
     c94:	31 05       	cpc	r19, r1
     c96:	29 f7       	brne	.-54     	; 0xc62 <SetTimerTask+0x1e>
	}
	

	for(index=0;index!=MainTimerQueueSize+1;++index)
	{
		if (MainTimer[index].GoToTask == Idle)
     c98:	20 91 15 04 	lds	r18, 0x0415	; 0x800415 <MainTimer>
     c9c:	30 91 16 04 	lds	r19, 0x0416	; 0x800416 <MainTimer+0x1>
     ca0:	26 5d       	subi	r18, 0xD6	; 214
     ca2:	35 40       	sbci	r19, 0x05	; 5
     ca4:	81 f0       	breq	.+32     	; 0xcc6 <SetTimerTask+0x82>
     ca6:	21 e0       	ldi	r18, 0x01	; 1
     ca8:	30 e0       	ldi	r19, 0x00	; 0
     caa:	d9 01       	movw	r26, r18
     cac:	f9 01       	movw	r30, r18
     cae:	ee 0f       	add	r30, r30
     cb0:	ff 1f       	adc	r31, r31
     cb2:	ee 0f       	add	r30, r30
     cb4:	ff 1f       	adc	r31, r31
     cb6:	eb 5e       	subi	r30, 0xEB	; 235
     cb8:	fb 4f       	sbci	r31, 0xFB	; 251
     cba:	40 81       	ld	r20, Z
     cbc:	51 81       	ldd	r21, Z+1	; 0x01
     cbe:	46 5d       	subi	r20, 0xD6	; 214
     cc0:	55 40       	sbci	r21, 0x05	; 5
     cc2:	a1 f4       	brne	.+40     	; 0xcec <SetTimerTask+0xa8>
     cc4:	02 c0       	rjmp	.+4      	; 0xcca <SetTimerTask+0x86>
     cc6:	a0 e0       	ldi	r26, 0x00	; 0
     cc8:	b0 e0       	ldi	r27, 0x00	; 0
		{
			MainTimer[index].GoToTask = TS;			
     cca:	aa 0f       	add	r26, r26
     ccc:	bb 1f       	adc	r27, r27
     cce:	aa 0f       	add	r26, r26
     cd0:	bb 1f       	adc	r27, r27
     cd2:	ab 5e       	subi	r26, 0xEB	; 235
     cd4:	bb 4f       	sbci	r27, 0xFB	; 251
     cd6:	11 96       	adiw	r26, 0x01	; 1
     cd8:	9c 93       	st	X, r25
     cda:	8e 93       	st	-X, r24
			MainTimer[index].Time = NewTime;		
     cdc:	13 96       	adiw	r26, 0x03	; 3
     cde:	7c 93       	st	X, r23
     ce0:	6e 93       	st	-X, r22
     ce2:	12 97       	sbiw	r26, 0x02	; 2
			if (nointerrupted) 	Enable_Interrupt	
     ce4:	cc 23       	and	r28, r28
     ce6:	d9 f0       	breq	.+54     	; 0xd1e <SetTimerTask+0xda>
     ce8:	78 94       	sei
     cea:	19 c0       	rjmp	.+50     	; 0xd1e <SetTimerTask+0xda>
     cec:	2f 5f       	subi	r18, 0xFF	; 255
     cee:	3f 4f       	sbci	r19, 0xFF	; 255
			return;									
		}
	}
	

	for(index=0;index!=MainTimerQueueSize+1;++index)
     cf0:	20 31       	cpi	r18, 0x10	; 16
     cf2:	31 05       	cpc	r19, r1
     cf4:	d1 f6       	brne	.-76     	; 0xcaa <SetTimerTask+0x66>
     cf6:	13 c0       	rjmp	.+38     	; 0xd1e <SetTimerTask+0xda>

	for(index=0;index!=MainTimerQueueSize+1;++index)
	{
		if(MainTimer[index].GoToTask == TS)			
		{
			MainTimer[index].Time = NewTime;		
     cf8:	70 93 18 04 	sts	0x0418, r23	; 0x800418 <MainTimer+0x3>
     cfc:	60 93 17 04 	sts	0x0417, r22	; 0x800417 <MainTimer+0x2>
     d00:	c1 cf       	rjmp	.-126    	; 0xc84 <SetTimerTask+0x40>
     d02:	70 93 18 04 	sts	0x0418, r23	; 0x800418 <MainTimer+0x3>
     d06:	60 93 17 04 	sts	0x0417, r22	; 0x800417 <MainTimer+0x2>
     d0a:	09 c0       	rjmp	.+18     	; 0xd1e <SetTimerTask+0xda>
	}


	for(index=0;index!=MainTimerQueueSize+1;++index)
	{
		if(MainTimer[index].GoToTask == TS)			
     d0c:	20 91 15 04 	lds	r18, 0x0415	; 0x800415 <MainTimer>
     d10:	30 91 16 04 	lds	r19, 0x0416	; 0x800416 <MainTimer+0x1>
     d14:	82 17       	cp	r24, r18
     d16:	93 07       	cpc	r25, r19
     d18:	a1 f3       	breq	.-24     	; 0xd02 <SetTimerTask+0xbe>


void SetTimerTask(TPTR TS, u16 NewTime)
{
	u08		index=0;
	u08		nointerrupted = 0;
     d1a:	c0 e0       	ldi	r28, 0x00	; 0
     d1c:	b5 cf       	rjmp	.-150    	; 0xc88 <SetTimerTask+0x44>
			if (nointerrupted) 	Enable_Interrupt	
			return;									
		}
		
	}	
}
     d1e:	cf 91       	pop	r28
     d20:	08 95       	ret

00000d22 <TaskManager>:



inline void TaskManager(void)
{
     d22:	cf 93       	push	r28
     d24:	df 93       	push	r29
	u08		index=0;
	TPTR	GoToTask = Idle;		
	Disable_Interrupt				
     d26:	f8 94       	cli
	GoToTask = TaskQueue[0];		
     d28:	e0 91 55 04 	lds	r30, 0x0455	; 0x800455 <TaskQueue>
     d2c:	f0 91 56 04 	lds	r31, 0x0456	; 0x800456 <TaskQueue+0x1>

	if (GoToTask==Idle) 			
     d30:	85 e0       	ldi	r24, 0x05	; 5
     d32:	e6 3d       	cpi	r30, 0xD6	; 214
     d34:	f8 07       	cpc	r31, r24
     d36:	11 f4       	brne	.+4      	; 0xd3c <TaskManager+0x1a>
	{
		Enable_Interrupt			
     d38:	78 94       	sei
     d3a:	1d c0       	rjmp	.+58     	; 0xd76 <TaskManager+0x54>
     d3c:	80 e0       	ldi	r24, 0x00	; 0
     d3e:	90 e0       	ldi	r25, 0x00	; 0
	}
	else
	{
		for(index=0;index!=TaskQueueSize;index++)	
		{
			TaskQueue[index]=TaskQueue[index+1];
     d40:	dc 01       	movw	r26, r24
     d42:	01 96       	adiw	r24, 0x01	; 1
     d44:	ec 01       	movw	r28, r24
     d46:	cc 0f       	add	r28, r28
     d48:	dd 1f       	adc	r29, r29
     d4a:	cb 5a       	subi	r28, 0xAB	; 171
     d4c:	db 4f       	sbci	r29, 0xFB	; 251
     d4e:	28 81       	ld	r18, Y
     d50:	39 81       	ldd	r19, Y+1	; 0x01
     d52:	aa 0f       	add	r26, r26
     d54:	bb 1f       	adc	r27, r27
     d56:	ab 5a       	subi	r26, 0xAB	; 171
     d58:	bb 4f       	sbci	r27, 0xFB	; 251
     d5a:	11 96       	adiw	r26, 0x01	; 1
     d5c:	3c 93       	st	X, r19
     d5e:	2e 93       	st	-X, r18
		Enable_Interrupt			
		(Idle)(); 					
	}
	else
	{
		for(index=0;index!=TaskQueueSize;index++)	
     d60:	84 31       	cpi	r24, 0x14	; 20
     d62:	91 05       	cpc	r25, r1
     d64:	69 f7       	brne	.-38     	; 0xd40 <TaskManager+0x1e>
		{
			TaskQueue[index]=TaskQueue[index+1];
		}

		TaskQueue[TaskQueueSize]= Idle;				
     d66:	86 ed       	ldi	r24, 0xD6	; 214
     d68:	95 e0       	ldi	r25, 0x05	; 5
     d6a:	90 93 7e 04 	sts	0x047E, r25	; 0x80047e <TaskQueue+0x29>
     d6e:	80 93 7d 04 	sts	0x047D, r24	; 0x80047d <TaskQueue+0x28>

		Enable_Interrupt							
     d72:	78 94       	sei
		(GoToTask)();								
     d74:	19 95       	eicall
	}
}
     d76:	df 91       	pop	r29
     d78:	cf 91       	pop	r28
     d7a:	08 95       	ret

00000d7c <TimerService>:



inline void TimerService(void)
{
     d7c:	ef 92       	push	r14
     d7e:	ff 92       	push	r15
     d80:	0f 93       	push	r16
     d82:	1f 93       	push	r17
     d84:	cf 93       	push	r28
     d86:	df 93       	push	r29
     d88:	e1 2c       	mov	r14, r1
     d8a:	f1 2c       	mov	r15, r1
			MainTimer[index].Time --;					
		}
		else
		{
			SetTask(MainTimer[index].GoToTask);			
			MainTimer[index].GoToTask = Idle;			
     d8c:	06 ed       	ldi	r16, 0xD6	; 214
     d8e:	15 e0       	ldi	r17, 0x05	; 5
{
	u08 index;

	for(index=0;index!=MainTimerQueueSize+1;index++)		
	{
		if(MainTimer[index].GoToTask == Idle) continue;		
     d90:	f7 01       	movw	r30, r14
     d92:	d7 01       	movw	r26, r14
     d94:	aa 0f       	add	r26, r26
     d96:	bb 1f       	adc	r27, r27
     d98:	aa 0f       	add	r26, r26
     d9a:	bb 1f       	adc	r27, r27
     d9c:	ab 5e       	subi	r26, 0xEB	; 235
     d9e:	bb 4f       	sbci	r27, 0xFB	; 251
     da0:	8d 91       	ld	r24, X+
     da2:	9c 91       	ld	r25, X
     da4:	86 5d       	subi	r24, 0xD6	; 214
     da6:	95 40       	sbci	r25, 0x05	; 5
     da8:	01 f1       	breq	.+64     	; 0xdea <TimerService+0x6e>

		if(MainTimer[index].Time !=1)						
     daa:	d7 01       	movw	r26, r14
     dac:	aa 0f       	add	r26, r26
     dae:	bb 1f       	adc	r27, r27
     db0:	aa 0f       	add	r26, r26
     db2:	bb 1f       	adc	r27, r27
     db4:	ab 5e       	subi	r26, 0xEB	; 235
     db6:	bb 4f       	sbci	r27, 0xFB	; 251
     db8:	12 96       	adiw	r26, 0x02	; 2
     dba:	8d 91       	ld	r24, X+
     dbc:	9c 91       	ld	r25, X
     dbe:	13 97       	sbiw	r26, 0x03	; 3
     dc0:	01 97       	sbiw	r24, 0x01	; 1
     dc2:	39 f0       	breq	.+14     	; 0xdd2 <TimerService+0x56>
		{												
			MainTimer[index].Time --;					
     dc4:	fd 01       	movw	r30, r26
     dc6:	82 81       	ldd	r24, Z+2	; 0x02
     dc8:	93 81       	ldd	r25, Z+3	; 0x03
     dca:	01 97       	sbiw	r24, 0x01	; 1
     dcc:	93 83       	std	Z+3, r25	; 0x03
     dce:	82 83       	std	Z+2, r24	; 0x02
     dd0:	0c c0       	rjmp	.+24     	; 0xdea <TimerService+0x6e>
		}
		else
		{
			SetTask(MainTimer[index].GoToTask);			
     dd2:	ee 0f       	add	r30, r30
     dd4:	ff 1f       	adc	r31, r31
     dd6:	ee 0f       	add	r30, r30
     dd8:	ff 1f       	adc	r31, r31
     dda:	ef 01       	movw	r28, r30
     ddc:	cb 5e       	subi	r28, 0xEB	; 235
     dde:	db 4f       	sbci	r29, 0xFB	; 251
     de0:	88 81       	ld	r24, Y
     de2:	99 81       	ldd	r25, Y+1	; 0x01
     de4:	07 df       	rcall	.-498    	; 0xbf4 <SetTask>
			MainTimer[index].GoToTask = Idle;			
     de6:	19 83       	std	Y+1, r17	; 0x01
     de8:	08 83       	st	Y, r16
     dea:	8f ef       	ldi	r24, 0xFF	; 255
     dec:	e8 1a       	sub	r14, r24
     dee:	f8 0a       	sbc	r15, r24

inline void TimerService(void)
{
	u08 index;

	for(index=0;index!=MainTimerQueueSize+1;index++)		
     df0:	20 e1       	ldi	r18, 0x10	; 16
     df2:	e2 16       	cp	r14, r18
     df4:	f1 04       	cpc	r15, r1
     df6:	61 f6       	brne	.-104    	; 0xd90 <TimerService+0x14>
		{
			SetTask(MainTimer[index].GoToTask);			
			MainTimer[index].GoToTask = Idle;			
		}
	}
}
     df8:	df 91       	pop	r29
     dfa:	cf 91       	pop	r28
     dfc:	1f 91       	pop	r17
     dfe:	0f 91       	pop	r16
     e00:	ff 90       	pop	r15
     e02:	ef 90       	pop	r14
     e04:	08 95       	ret

00000e06 <RunRTOS>:
#include "EERTOSHAL.h"


inline void RunRTOS (void)
{
	TCCR2B  = 1<<WGM22|4<<CS20;				// Freq = CK/64 -    
     e06:	8c e0       	ldi	r24, 0x0C	; 12
     e08:	80 93 b1 00 	sts	0x00B1, r24	; 0x8000b1 <__TEXT_REGION_LENGTH__+0x7000b1>
											//     
	TCNT2 = 0;								//    
     e0c:	10 92 b2 00 	sts	0x00B2, r1	; 0x8000b2 <__TEXT_REGION_LENGTH__+0x7000b2>
	OCR2A  = LO(TimerDivider); 				//     
     e10:	8a ef       	ldi	r24, 0xFA	; 250
     e12:	80 93 b3 00 	sts	0x00B3, r24	; 0x8000b3 <__TEXT_REGION_LENGTH__+0x7000b3>
	TIMSK2 = 0<<TOIE2|1<<OCIE2A;		        //   RTOS -  
     e16:	82 e0       	ldi	r24, 0x02	; 2
     e18:	80 93 70 00 	sts	0x0070, r24	; 0x800070 <__TEXT_REGION_LENGTH__+0x700070>
     e1c:	08 95       	ret

00000e1e <InitAll>:
inline void InitAll(void)
{

	//InitUSART
	
	UBRR1H = HI(bauddivider);
     e1e:	10 92 cd 00 	sts	0x00CD, r1	; 0x8000cd <__TEXT_REGION_LENGTH__+0x7000cd>
	UBRR1L = LO(bauddivider);
     e22:	88 e0       	ldi	r24, 0x08	; 8
     e24:	80 93 cc 00 	sts	0x00CC, r24	; 0x8000cc <__TEXT_REGION_LENGTH__+0x7000cc>
	UCSR1A = 0;
     e28:	10 92 c8 00 	sts	0x00C8, r1	; 0x8000c8 <__TEXT_REGION_LENGTH__+0x7000c8>
	UCSR1B = 1<<RXCIE1|0<<TXCIE1|0<<UDRIE1|1<<TXEN1|1<<RXEN1|0<<UCSZ12;
     e2c:	88 e9       	ldi	r24, 0x98	; 152
     e2e:	80 93 c9 00 	sts	0x00C9, r24	; 0x8000c9 <__TEXT_REGION_LENGTH__+0x7000c9>
	UCSR1C=0b10000110;
     e32:	86 e8       	ldi	r24, 0x86	; 134
     e34:	80 93 ca 00 	sts	0x00CA, r24	; 0x8000ca <__TEXT_REGION_LENGTH__+0x7000ca>
	
	//InitPort
	LED_DDR0 |= 1<<LED1|1<<LED2;
     e38:	83 b3       	in	r24, 0x13	; 19
     e3a:	83 60       	ori	r24, 0x03	; 3
     e3c:	83 bb       	out	0x13, r24	; 19
	LED_DDR1 |= 1<<LED3|1<<LED4;
     e3e:	87 b1       	in	r24, 0x07	; 7
     e40:	83 60       	ori	r24, 0x03	; 3
     e42:	87 b9       	out	0x07, r24	; 7
	//InitInt
	

	//InitADC
	
	ADMUX = 0<<REFS1|1<<REFS0|0<<ADLAR|0<<MUX4|0<<MUX3|0<<MUX2|0<<MUX1|0<<MUX0;
     e44:	80 e4       	ldi	r24, 0x40	; 64
     e46:	80 93 7c 00 	sts	0x007C, r24	; 0x80007c <__TEXT_REGION_LENGTH__+0x70007c>
	ADCSRB = (0<<ACME);
     e4a:	10 92 7b 00 	sts	0x007B, r1	; 0x80007b <__TEXT_REGION_LENGTH__+0x70007b>
	ADCSRA = 1<<ADEN|1<<ADIE|0<<ADATE|(1<<ADPS2)|(1<<ADPS1)|(1<<ADPS0);
     e4e:	8f e8       	ldi	r24, 0x8F	; 143
     e50:	80 93 7a 00 	sts	0x007A, r24	; 0x80007a <__TEXT_REGION_LENGTH__+0x70007a>
     e54:	08 95       	ret

00000e56 <reenable_ADC>:
	UART_Add_Message(result);
	
	t = mcp2515_read_register(TXRTSCTRL,module);
	sprintf(result,"TXRTSCTRL: %d",t);
	UART_Add_Message(result);
}
     e56:	f8 94       	cli
     e58:	80 91 0b 0f 	lds	r24, 0x0F0B	; 0x800f0b <ADC_ready>
     e5c:	81 30       	cpi	r24, 0x01	; 1
     e5e:	09 f0       	breq	.+2      	; 0xe62 <reenable_ADC+0xc>
     e60:	40 c0       	rjmp	.+128    	; 0xee2 <reenable_ADC+0x8c>
     e62:	80 91 06 0f 	lds	r24, 0x0F06	; 0x800f06 <current_ADC_input>
     e66:	81 11       	cpse	r24, r1
     e68:	04 c0       	rjmp	.+8      	; 0xe72 <reenable_ADC+0x1c>
     e6a:	81 e0       	ldi	r24, 0x01	; 1
     e6c:	80 93 06 0f 	sts	0x0F06, r24	; 0x800f06 <current_ADC_input>
     e70:	02 c0       	rjmp	.+4      	; 0xe76 <reenable_ADC+0x20>
     e72:	10 92 06 0f 	sts	0x0F06, r1	; 0x800f06 <current_ADC_input>
     e76:	80 91 06 0f 	lds	r24, 0x0F06	; 0x800f06 <current_ADC_input>
     e7a:	90 e0       	ldi	r25, 0x00	; 0
     e7c:	fc 01       	movw	r30, r24
     e7e:	ee 0f       	add	r30, r30
     e80:	ff 1f       	adc	r31, r31
     e82:	e8 0f       	add	r30, r24
     e84:	f9 1f       	adc	r31, r25
     e86:	ee 0f       	add	r30, r30
     e88:	ff 1f       	adc	r31, r31
     e8a:	e2 5c       	subi	r30, 0xC2	; 194
     e8c:	fd 4f       	sbci	r31, 0xFD	; 253
     e8e:	22 81       	ldd	r18, Z+2	; 0x02
     e90:	33 81       	ldd	r19, Z+3	; 0x03
     e92:	21 15       	cp	r18, r1
     e94:	31 05       	cpc	r19, r1
     e96:	c1 f4       	brne	.+48     	; 0xec8 <reenable_ADC+0x72>
     e98:	ac e7       	ldi	r26, 0x7C	; 124
     e9a:	b0 e0       	ldi	r27, 0x00	; 0
     e9c:	2c 91       	ld	r18, X
     e9e:	fc 01       	movw	r30, r24
     ea0:	ee 0f       	add	r30, r30
     ea2:	ff 1f       	adc	r31, r31
     ea4:	e8 0f       	add	r30, r24
     ea6:	f9 1f       	adc	r31, r25
     ea8:	ee 0f       	add	r30, r30
     eaa:	ff 1f       	adc	r31, r31
     eac:	e2 5c       	subi	r30, 0xC2	; 194
     eae:	fd 4f       	sbci	r31, 0xFD	; 253
     eb0:	80 81       	ld	r24, Z
     eb2:	80 5c       	subi	r24, 0xC0	; 192
     eb4:	82 2b       	or	r24, r18
     eb6:	8c 93       	st	X, r24
     eb8:	ea e7       	ldi	r30, 0x7A	; 122
     eba:	f0 e0       	ldi	r31, 0x00	; 0
     ebc:	80 81       	ld	r24, Z
     ebe:	80 64       	ori	r24, 0x40	; 64
     ec0:	80 83       	st	Z, r24
     ec2:	10 92 0b 0f 	sts	0x0F0B, r1	; 0x800f0b <ADC_ready>
     ec6:	0d c0       	rjmp	.+26     	; 0xee2 <reenable_ADC+0x8c>
     ec8:	fc 01       	movw	r30, r24
     eca:	ee 0f       	add	r30, r30
     ecc:	ff 1f       	adc	r31, r31
     ece:	e8 0f       	add	r30, r24
     ed0:	f9 1f       	adc	r31, r25
     ed2:	ee 0f       	add	r30, r30
     ed4:	ff 1f       	adc	r31, r31
     ed6:	e2 5c       	subi	r30, 0xC2	; 194
     ed8:	fd 4f       	sbci	r31, 0xFD	; 253
     eda:	21 50       	subi	r18, 0x01	; 1
     edc:	31 09       	sbc	r19, r1
     ede:	33 83       	std	Z+3, r19	; 0x03
     ee0:	22 83       	std	Z+2, r18	; 0x02
     ee2:	65 e0       	ldi	r22, 0x05	; 5
     ee4:	70 e0       	ldi	r23, 0x00	; 0
     ee6:	8b e2       	ldi	r24, 0x2B	; 43
     ee8:	97 e0       	ldi	r25, 0x07	; 7
     eea:	ac de       	rcall	.-680    	; 0xc44 <SetTimerTask>
     eec:	78 94       	sei
     eee:	08 95       	ret

00000ef0 <pushmedia>:
     ef0:	0f 93       	push	r16
     ef2:	1f 93       	push	r17
     ef4:	cf 93       	push	r28
     ef6:	df 93       	push	r29
     ef8:	cd b7       	in	r28, 0x3d	; 61
     efa:	de b7       	in	r29, 0x3e	; 62
     efc:	28 97       	sbiw	r28, 0x08	; 8
     efe:	0f b6       	in	r0, 0x3f	; 63
     f00:	f8 94       	cli
     f02:	de bf       	out	0x3e, r29	; 62
     f04:	0f be       	out	0x3f, r0	; 63
     f06:	cd bf       	out	0x3d, r28	; 61
     f08:	80 91 09 0f 	lds	r24, 0x0F09	; 0x800f09 <media_mode>
     f0c:	81 11       	cpse	r24, r1
     f0e:	25 c0       	rjmp	.+74     	; 0xf5a <pushmedia+0x6a>
     f10:	80 91 04 0f 	lds	r24, 0x0F04	; 0x800f04 <button>
     f14:	81 11       	cpse	r24, r1
     f16:	04 c0       	rjmp	.+8      	; 0xf20 <pushmedia+0x30>
     f18:	81 e0       	ldi	r24, 0x01	; 1
     f1a:	80 93 04 0f 	sts	0x0F04, r24	; 0x800f04 <button>
     f1e:	03 c0       	rjmp	.+6      	; 0xf26 <pushmedia+0x36>
     f20:	88 0f       	add	r24, r24
     f22:	80 93 04 0f 	sts	0x0F04, r24	; 0x800f04 <button>
     f26:	80 91 04 0f 	lds	r24, 0x0F04	; 0x800f04 <button>
     f2a:	1f 92       	push	r1
     f2c:	8f 93       	push	r24
     f2e:	8d ea       	ldi	r24, 0xAD	; 173
     f30:	92 e0       	ldi	r25, 0x02	; 2
     f32:	9f 93       	push	r25
     f34:	8f 93       	push	r24
     f36:	8e 01       	movw	r16, r28
     f38:	0f 5f       	subi	r16, 0xFF	; 255
     f3a:	1f 4f       	sbci	r17, 0xFF	; 255
     f3c:	1f 93       	push	r17
     f3e:	0f 93       	push	r16
     f40:	61 d6       	rcall	.+3266   	; 0x1c04 <sprintf>
     f42:	c8 01       	movw	r24, r16
     f44:	98 d9       	rcall	.-3280   	; 0x276 <UART_Add_Message>
     f46:	80 91 04 0f 	lds	r24, 0x0F04	; 0x800f04 <button>
     f4a:	88 b9       	out	0x08, r24	; 8
     f4c:	0f 90       	pop	r0
     f4e:	0f 90       	pop	r0
     f50:	0f 90       	pop	r0
     f52:	0f 90       	pop	r0
     f54:	0f 90       	pop	r0
     f56:	0f 90       	pop	r0
     f58:	04 c0       	rjmp	.+8      	; 0xf62 <pushmedia+0x72>
     f5a:	18 b8       	out	0x08, r1	; 8
     f5c:	87 eb       	ldi	r24, 0xB7	; 183
     f5e:	92 e0       	ldi	r25, 0x02	; 2
     f60:	8a d9       	rcall	.-3308   	; 0x276 <UART_Add_Message>
     f62:	80 91 09 0f 	lds	r24, 0x0F09	; 0x800f09 <media_mode>
     f66:	81 11       	cpse	r24, r1
     f68:	09 c0       	rjmp	.+18     	; 0xf7c <pushmedia+0x8c>
     f6a:	81 e0       	ldi	r24, 0x01	; 1
     f6c:	80 93 09 0f 	sts	0x0F09, r24	; 0x800f09 <media_mode>
     f70:	68 e2       	ldi	r22, 0x28	; 40
     f72:	70 e0       	ldi	r23, 0x00	; 0
     f74:	88 e7       	ldi	r24, 0x78	; 120
     f76:	97 e0       	ldi	r25, 0x07	; 7
     f78:	65 de       	rcall	.-822    	; 0xc44 <SetTimerTask>
     f7a:	07 c0       	rjmp	.+14     	; 0xf8a <pushmedia+0x9a>
     f7c:	10 92 09 0f 	sts	0x0F09, r1	; 0x800f09 <media_mode>
     f80:	68 ee       	ldi	r22, 0xE8	; 232
     f82:	73 e0       	ldi	r23, 0x03	; 3
     f84:	88 e7       	ldi	r24, 0x78	; 120
     f86:	97 e0       	ldi	r25, 0x07	; 7
     f88:	5d de       	rcall	.-838    	; 0xc44 <SetTimerTask>
     f8a:	28 96       	adiw	r28, 0x08	; 8
     f8c:	0f b6       	in	r0, 0x3f	; 63
     f8e:	f8 94       	cli
     f90:	de bf       	out	0x3e, r29	; 62
     f92:	0f be       	out	0x3f, r0	; 63
     f94:	cd bf       	out	0x3d, r28	; 61
     f96:	df 91       	pop	r29
     f98:	cf 91       	pop	r28
     f9a:	1f 91       	pop	r17
     f9c:	0f 91       	pop	r16
     f9e:	08 95       	ret

00000fa0 <Process_CAN_Message>:
     fa0:	df 92       	push	r13
     fa2:	ef 92       	push	r14
     fa4:	ff 92       	push	r15
     fa6:	0f 93       	push	r16
     fa8:	1f 93       	push	r17
     faa:	cf 93       	push	r28
     fac:	df 93       	push	r29
     fae:	df b6       	in	r13, 0x3f	; 63
     fb0:	f8 94       	cli
     fb2:	c4 e2       	ldi	r28, 0x24	; 36
     fb4:	dd e0       	ldi	r29, 0x0D	; 13
     fb6:	ec 2e       	mov	r14, r28
     fb8:	fd 2e       	mov	r15, r29
     fba:	08 ef       	ldi	r16, 0xF8	; 248
     fbc:	1e e0       	ldi	r17, 0x0E	; 14
     fbe:	2d c0       	rjmp	.+90     	; 0x101a <Process_CAN_Message+0x7a>
     fc0:	8e 2d       	mov	r24, r14
     fc2:	9f 2d       	mov	r25, r15
     fc4:	37 db       	rcall	.-2450   	; 0x634 <can_process_message>
     fc6:	88 81       	ld	r24, Y
     fc8:	99 81       	ldd	r25, Y+1	; 0x01
     fca:	89 2b       	or	r24, r25
     fcc:	31 f1       	breq	.+76     	; 0x101a <Process_CAN_Message+0x7a>
     fce:	e4 e2       	ldi	r30, 0x24	; 36
     fd0:	fd e0       	ldi	r31, 0x0D	; 13
     fd2:	80 e0       	ldi	r24, 0x00	; 0
     fd4:	8f 5f       	subi	r24, 0xFF	; 255
     fd6:	24 85       	ldd	r18, Z+12	; 0x0c
     fd8:	35 85       	ldd	r19, Z+13	; 0x0d
     fda:	31 83       	std	Z+1, r19	; 0x01
     fdc:	20 83       	st	Z, r18
     fde:	97 85       	ldd	r25, Z+15	; 0x0f
     fe0:	93 83       	std	Z+3, r25	; 0x03
     fe2:	96 85       	ldd	r25, Z+14	; 0x0e
     fe4:	92 83       	std	Z+2, r25	; 0x02
     fe6:	90 89       	ldd	r25, Z+16	; 0x10
     fe8:	94 83       	std	Z+4, r25	; 0x04
     fea:	91 89       	ldd	r25, Z+17	; 0x11
     fec:	95 83       	std	Z+5, r25	; 0x05
     fee:	92 89       	ldd	r25, Z+18	; 0x12
     ff0:	96 83       	std	Z+6, r25	; 0x06
     ff2:	93 89       	ldd	r25, Z+19	; 0x13
     ff4:	97 83       	std	Z+7, r25	; 0x07
     ff6:	94 89       	ldd	r25, Z+20	; 0x14
     ff8:	90 87       	std	Z+8, r25	; 0x08
     ffa:	95 89       	ldd	r25, Z+21	; 0x15
     ffc:	91 87       	std	Z+9, r25	; 0x09
     ffe:	96 89       	ldd	r25, Z+22	; 0x16
    1000:	92 87       	std	Z+10, r25	; 0x0a
    1002:	97 89       	ldd	r25, Z+23	; 0x17
    1004:	93 87       	std	Z+11, r25	; 0x0b
    1006:	87 32       	cpi	r24, 0x27	; 39
    1008:	41 f0       	breq	.+16     	; 0x101a <Process_CAN_Message+0x7a>
    100a:	3c 96       	adiw	r30, 0x0c	; 12
    100c:	23 2b       	or	r18, r19
    100e:	11 f7       	brne	.-60     	; 0xfd4 <Process_CAN_Message+0x34>
    1010:	88 32       	cpi	r24, 0x28	; 40
    1012:	18 f0       	brcs	.+6      	; 0x101a <Process_CAN_Message+0x7a>
    1014:	f8 01       	movw	r30, r16
    1016:	11 82       	std	Z+1, r1	; 0x01
    1018:	10 82       	st	Z, r1
    101a:	88 81       	ld	r24, Y
    101c:	99 81       	ldd	r25, Y+1	; 0x01
    101e:	89 2b       	or	r24, r25
    1020:	79 f6       	brne	.-98     	; 0xfc0 <Process_CAN_Message+0x20>
    1022:	df be       	out	0x3f, r13	; 63
    1024:	df 91       	pop	r29
    1026:	cf 91       	pop	r28
    1028:	1f 91       	pop	r17
    102a:	0f 91       	pop	r16
    102c:	ff 90       	pop	r15
    102e:	ef 90       	pop	r14
    1030:	df 90       	pop	r13
    1032:	08 95       	ret

00001034 <__vector_13>:
    1034:	1f 92       	push	r1
    1036:	0f 92       	push	r0
    1038:	0f b6       	in	r0, 0x3f	; 63
    103a:	0f 92       	push	r0
    103c:	11 24       	eor	r1, r1
    103e:	0b b6       	in	r0, 0x3b	; 59
    1040:	0f 92       	push	r0
    1042:	2f 93       	push	r18
    1044:	3f 93       	push	r19
    1046:	4f 93       	push	r20
    1048:	5f 93       	push	r21
    104a:	6f 93       	push	r22
    104c:	7f 93       	push	r23
    104e:	8f 93       	push	r24
    1050:	9f 93       	push	r25
    1052:	af 93       	push	r26
    1054:	bf 93       	push	r27
    1056:	ef 93       	push	r30
    1058:	ff 93       	push	r31
    105a:	90 de       	rcall	.-736    	; 0xd7c <TimerService>
    105c:	ff 91       	pop	r31
    105e:	ef 91       	pop	r30
    1060:	bf 91       	pop	r27
    1062:	af 91       	pop	r26
    1064:	9f 91       	pop	r25
    1066:	8f 91       	pop	r24
    1068:	7f 91       	pop	r23
    106a:	6f 91       	pop	r22
    106c:	5f 91       	pop	r21
    106e:	4f 91       	pop	r20
    1070:	3f 91       	pop	r19
    1072:	2f 91       	pop	r18
    1074:	0f 90       	pop	r0
    1076:	0b be       	out	0x3b, r0	; 59
    1078:	0f 90       	pop	r0
    107a:	0f be       	out	0x3f, r0	; 63
    107c:	0f 90       	pop	r0
    107e:	1f 90       	pop	r1
    1080:	18 95       	reti

00001082 <__vector_29>:
    1082:	1f 92       	push	r1
    1084:	0f 92       	push	r0
    1086:	0f b6       	in	r0, 0x3f	; 63
    1088:	0f 92       	push	r0
    108a:	11 24       	eor	r1, r1
    108c:	0b b6       	in	r0, 0x3b	; 59
    108e:	0f 92       	push	r0
    1090:	2f 93       	push	r18
    1092:	3f 93       	push	r19
    1094:	4f 93       	push	r20
    1096:	5f 93       	push	r21
    1098:	6f 93       	push	r22
    109a:	7f 93       	push	r23
    109c:	8f 93       	push	r24
    109e:	9f 93       	push	r25
    10a0:	af 93       	push	r26
    10a2:	bf 93       	push	r27
    10a4:	cf 93       	push	r28
    10a6:	df 93       	push	r29
    10a8:	ef 93       	push	r30
    10aa:	ff 93       	push	r31
    10ac:	60 91 78 00 	lds	r22, 0x0078	; 0x800078 <__TEXT_REGION_LENGTH__+0x700078>
    10b0:	70 91 79 00 	lds	r23, 0x0079	; 0x800079 <__TEXT_REGION_LENGTH__+0x700079>
    10b4:	80 e0       	ldi	r24, 0x00	; 0
    10b6:	90 e0       	ldi	r25, 0x00	; 0
    10b8:	e4 d3       	rcall	.+1992   	; 0x1882 <__floatunsisf>
    10ba:	26 ee       	ldi	r18, 0xE6	; 230
    10bc:	3f e3       	ldi	r19, 0x3F	; 63
    10be:	44 e5       	ldi	r20, 0x54	; 84
    10c0:	5f e3       	ldi	r21, 0x3F	; 63
    10c2:	4b d3       	rcall	.+1686   	; 0x175a <__divsf3>
    10c4:	b2 d3       	rcall	.+1892   	; 0x182a <__fixunssfsi>
    10c6:	eb 01       	movw	r28, r22
    10c8:	a0 91 06 0f 	lds	r26, 0x0F06	; 0x800f06 <current_ADC_input>
    10cc:	4a 2f       	mov	r20, r26
    10ce:	50 e0       	ldi	r21, 0x00	; 0
    10d0:	fa 01       	movw	r30, r20
    10d2:	ee 0f       	add	r30, r30
    10d4:	ff 1f       	adc	r31, r31
    10d6:	e4 0f       	add	r30, r20
    10d8:	f5 1f       	adc	r31, r21
    10da:	ee 0f       	add	r30, r30
    10dc:	ff 1f       	adc	r31, r31
    10de:	e2 5c       	subi	r30, 0xC2	; 194
    10e0:	fd 4f       	sbci	r31, 0xFD	; 253
    10e2:	24 81       	ldd	r18, Z+4	; 0x04
    10e4:	35 81       	ldd	r19, Z+5	; 0x05
    10e6:	26 1b       	sub	r18, r22
    10e8:	37 0b       	sbc	r19, r23
    10ea:	f9 01       	movw	r30, r18
    10ec:	ff 23       	and	r31, r31
    10ee:	24 f4       	brge	.+8      	; 0x10f8 <__vector_29+0x76>
    10f0:	ee 27       	eor	r30, r30
    10f2:	ff 27       	eor	r31, r31
    10f4:	e2 1b       	sub	r30, r18
    10f6:	f3 0b       	sbc	r31, r19
    10f8:	e5 36       	cpi	r30, 0x65	; 101
    10fa:	f1 05       	cpc	r31, r1
    10fc:	04 f1       	brlt	.+64     	; 0x113e <__vector_29+0xbc>
    10fe:	21 e0       	ldi	r18, 0x01	; 1
    1100:	20 93 0a 0f 	sts	0x0F0A, r18	; 0x800f0a <Vin_mode>
    1104:	fa 01       	movw	r30, r20
    1106:	ee 0f       	add	r30, r30
    1108:	ff 1f       	adc	r31, r31
    110a:	e4 0f       	add	r30, r20
    110c:	f5 1f       	adc	r31, r21
    110e:	ee 0f       	add	r30, r30
    1110:	ff 1f       	adc	r31, r31
    1112:	e2 5c       	subi	r30, 0xC2	; 194
    1114:	fd 4f       	sbci	r31, 0xFD	; 253
    1116:	75 83       	std	Z+5, r23	; 0x05
    1118:	64 83       	std	Z+4, r22	; 0x04
    111a:	a1 11       	cpse	r26, r1
    111c:	02 c0       	rjmp	.+4      	; 0x1122 <__vector_29+0xa0>
    111e:	10 92 08 0f 	sts	0x0F08, r1	; 0x800f08 <media_state_counter_resume>
    1122:	fa 01       	movw	r30, r20
    1124:	ee 0f       	add	r30, r30
    1126:	ff 1f       	adc	r31, r31
    1128:	e4 0f       	add	r30, r20
    112a:	f5 1f       	adc	r31, r21
    112c:	ee 0f       	add	r30, r30
    112e:	ff 1f       	adc	r31, r31
    1130:	e2 5c       	subi	r30, 0xC2	; 194
    1132:	fd 4f       	sbci	r31, 0xFD	; 253
    1134:	8a e0       	ldi	r24, 0x0A	; 10
    1136:	90 e0       	ldi	r25, 0x00	; 0
    1138:	93 83       	std	Z+3, r25	; 0x03
    113a:	82 83       	std	Z+2, r24	; 0x02
    113c:	24 c0       	rjmp	.+72     	; 0x1186 <__vector_29+0x104>
    113e:	80 91 0a 0f 	lds	r24, 0x0F0A	; 0x800f0a <Vin_mode>
    1142:	81 30       	cpi	r24, 0x01	; 1
    1144:	01 f5       	brne	.+64     	; 0x1186 <__vector_29+0x104>
    1146:	a1 11       	cpse	r26, r1
    1148:	1c c0       	rjmp	.+56     	; 0x1182 <__vector_29+0x100>
    114a:	10 92 0d 0f 	sts	0x0F0D, r1	; 0x800f0d <media_state_counter+0x1>
    114e:	10 92 0c 0f 	sts	0x0F0C, r1	; 0x800f0c <media_state_counter>
    1152:	80 93 08 0f 	sts	0x0F08, r24	; 0x800f08 <media_state_counter_resume>
    1156:	61 e0       	ldi	r22, 0x01	; 1
    1158:	70 e0       	ldi	r23, 0x00	; 0
    115a:	8c e0       	ldi	r24, 0x0C	; 12
    115c:	9b e0       	ldi	r25, 0x0B	; 11
    115e:	72 dd       	rcall	.-1308   	; 0xc44 <SetTimerTask>
    1160:	cd 3a       	cpi	r28, 0xAD	; 173
    1162:	83 e0       	ldi	r24, 0x03	; 3
    1164:	d8 07       	cpc	r29, r24
    1166:	18 f0       	brcs	.+6      	; 0x116e <__vector_29+0xec>
    1168:	10 92 07 0f 	sts	0x0F07, r1	; 0x800f07 <media_button>
    116c:	0a c0       	rjmp	.+20     	; 0x1182 <__vector_29+0x100>
    116e:	c7 37       	cpi	r28, 0x77	; 119
    1170:	d2 40       	sbci	r29, 0x02	; 2
    1172:	20 f0       	brcs	.+8      	; 0x117c <__vector_29+0xfa>
    1174:	81 e0       	ldi	r24, 0x01	; 1
    1176:	80 93 07 0f 	sts	0x0F07, r24	; 0x800f07 <media_button>
    117a:	03 c0       	rjmp	.+6      	; 0x1182 <__vector_29+0x100>
    117c:	82 e0       	ldi	r24, 0x02	; 2
    117e:	80 93 07 0f 	sts	0x0F07, r24	; 0x800f07 <media_button>
    1182:	10 92 0a 0f 	sts	0x0F0A, r1	; 0x800f0a <Vin_mode>
    1186:	81 e0       	ldi	r24, 0x01	; 1
    1188:	80 93 0b 0f 	sts	0x0F0B, r24	; 0x800f0b <ADC_ready>
    118c:	ff 91       	pop	r31
    118e:	ef 91       	pop	r30
    1190:	df 91       	pop	r29
    1192:	cf 91       	pop	r28
    1194:	bf 91       	pop	r27
    1196:	af 91       	pop	r26
    1198:	9f 91       	pop	r25
    119a:	8f 91       	pop	r24
    119c:	7f 91       	pop	r23
    119e:	6f 91       	pop	r22
    11a0:	5f 91       	pop	r21
    11a2:	4f 91       	pop	r20
    11a4:	3f 91       	pop	r19
    11a6:	2f 91       	pop	r18
    11a8:	0f 90       	pop	r0
    11aa:	0b be       	out	0x3b, r0	; 59
    11ac:	0f 90       	pop	r0
    11ae:	0f be       	out	0x3f, r0	; 63
    11b0:	0f 90       	pop	r0
    11b2:	1f 90       	pop	r1
    11b4:	18 95       	reti

000011b6 <__vector_37>:
    11b6:	1f 92       	push	r1
    11b8:	0f 92       	push	r0
    11ba:	0f b6       	in	r0, 0x3f	; 63
    11bc:	0f 92       	push	r0
    11be:	11 24       	eor	r1, r1
    11c0:	0b b6       	in	r0, 0x3b	; 59
    11c2:	0f 92       	push	r0
    11c4:	2f 93       	push	r18
    11c6:	3f 93       	push	r19
    11c8:	4f 93       	push	r20
    11ca:	5f 93       	push	r21
    11cc:	6f 93       	push	r22
    11ce:	7f 93       	push	r23
    11d0:	8f 93       	push	r24
    11d2:	9f 93       	push	r25
    11d4:	af 93       	push	r26
    11d6:	bf 93       	push	r27
    11d8:	ef 93       	push	r30
    11da:	ff 93       	push	r31
    11dc:	0e 94 88 00 	call	0x110	; 0x110 <UART_Send_Buffer_Empty>
    11e0:	ff 91       	pop	r31
    11e2:	ef 91       	pop	r30
    11e4:	bf 91       	pop	r27
    11e6:	af 91       	pop	r26
    11e8:	9f 91       	pop	r25
    11ea:	8f 91       	pop	r24
    11ec:	7f 91       	pop	r23
    11ee:	6f 91       	pop	r22
    11f0:	5f 91       	pop	r21
    11f2:	4f 91       	pop	r20
    11f4:	3f 91       	pop	r19
    11f6:	2f 91       	pop	r18
    11f8:	0f 90       	pop	r0
    11fa:	0b be       	out	0x3b, r0	; 59
    11fc:	0f 90       	pop	r0
    11fe:	0f be       	out	0x3f, r0	; 63
    1200:	0f 90       	pop	r0
    1202:	1f 90       	pop	r1
    1204:	18 95       	reti

00001206 <__vector_38>:
    1206:	1f 92       	push	r1
    1208:	0f 92       	push	r0
    120a:	0f b6       	in	r0, 0x3f	; 63
    120c:	0f 92       	push	r0
    120e:	11 24       	eor	r1, r1
    1210:	0b b6       	in	r0, 0x3b	; 59
    1212:	0f 92       	push	r0
    1214:	2f 93       	push	r18
    1216:	3f 93       	push	r19
    1218:	4f 93       	push	r20
    121a:	5f 93       	push	r21
    121c:	6f 93       	push	r22
    121e:	7f 93       	push	r23
    1220:	8f 93       	push	r24
    1222:	9f 93       	push	r25
    1224:	af 93       	push	r26
    1226:	bf 93       	push	r27
    1228:	ef 93       	push	r30
    122a:	ff 93       	push	r31
    122c:	0e 94 a9 00 	call	0x152	; 0x152 <UART_Send_Ended>
    1230:	ff 91       	pop	r31
    1232:	ef 91       	pop	r30
    1234:	bf 91       	pop	r27
    1236:	af 91       	pop	r26
    1238:	9f 91       	pop	r25
    123a:	8f 91       	pop	r24
    123c:	7f 91       	pop	r23
    123e:	6f 91       	pop	r22
    1240:	5f 91       	pop	r21
    1242:	4f 91       	pop	r20
    1244:	3f 91       	pop	r19
    1246:	2f 91       	pop	r18
    1248:	0f 90       	pop	r0
    124a:	0b be       	out	0x3b, r0	; 59
    124c:	0f 90       	pop	r0
    124e:	0f be       	out	0x3f, r0	; 63
    1250:	0f 90       	pop	r0
    1252:	1f 90       	pop	r1
    1254:	18 95       	reti

00001256 <__vector_36>:
    1256:	1f 92       	push	r1
    1258:	0f 92       	push	r0
    125a:	0f b6       	in	r0, 0x3f	; 63
    125c:	0f 92       	push	r0
    125e:	11 24       	eor	r1, r1
    1260:	0b b6       	in	r0, 0x3b	; 59
    1262:	0f 92       	push	r0
    1264:	2f 93       	push	r18
    1266:	3f 93       	push	r19
    1268:	4f 93       	push	r20
    126a:	5f 93       	push	r21
    126c:	6f 93       	push	r22
    126e:	7f 93       	push	r23
    1270:	8f 93       	push	r24
    1272:	9f 93       	push	r25
    1274:	af 93       	push	r26
    1276:	bf 93       	push	r27
    1278:	ef 93       	push	r30
    127a:	ff 93       	push	r31
    127c:	0e 94 ea 00 	call	0x1d4	; 0x1d4 <UART_Char_Received>
    1280:	ff 91       	pop	r31
    1282:	ef 91       	pop	r30
    1284:	bf 91       	pop	r27
    1286:	af 91       	pop	r26
    1288:	9f 91       	pop	r25
    128a:	8f 91       	pop	r24
    128c:	7f 91       	pop	r23
    128e:	6f 91       	pop	r22
    1290:	5f 91       	pop	r21
    1292:	4f 91       	pop	r20
    1294:	3f 91       	pop	r19
    1296:	2f 91       	pop	r18
    1298:	0f 90       	pop	r0
    129a:	0b be       	out	0x3b, r0	; 59
    129c:	0f 90       	pop	r0
    129e:	0f be       	out	0x3f, r0	; 63
    12a0:	0f 90       	pop	r0
    12a2:	1f 90       	pop	r1
    12a4:	18 95       	reti

000012a6 <__vector_24>:
    12a6:	1f 92       	push	r1
    12a8:	0f 92       	push	r0
    12aa:	0f b6       	in	r0, 0x3f	; 63
    12ac:	0f 92       	push	r0
    12ae:	11 24       	eor	r1, r1
    12b0:	0f 90       	pop	r0
    12b2:	0f be       	out	0x3f, r0	; 63
    12b4:	0f 90       	pop	r0
    12b6:	1f 90       	pop	r1
    12b8:	18 95       	reti

000012ba <__vector_5>:
    12ba:	1f 92       	push	r1
    12bc:	0f 92       	push	r0
    12be:	0f b6       	in	r0, 0x3f	; 63
    12c0:	0f 92       	push	r0
    12c2:	11 24       	eor	r1, r1
    12c4:	0b b6       	in	r0, 0x3b	; 59
    12c6:	0f 92       	push	r0
    12c8:	2f 93       	push	r18
    12ca:	3f 93       	push	r19
    12cc:	4f 93       	push	r20
    12ce:	5f 93       	push	r21
    12d0:	6f 93       	push	r22
    12d2:	7f 93       	push	r23
    12d4:	8f 93       	push	r24
    12d6:	9f 93       	push	r25
    12d8:	af 93       	push	r26
    12da:	bf 93       	push	r27
    12dc:	ef 93       	push	r30
    12de:	ff 93       	push	r31
    12e0:	40 9a       	sbi	0x08, 0	; 8
    12e2:	80 91 24 0d 	lds	r24, 0x0D24	; 0x800d24 <CAN_incoming_buffer>
    12e6:	90 91 25 0d 	lds	r25, 0x0D25	; 0x800d25 <CAN_incoming_buffer+0x1>
    12ea:	89 2b       	or	r24, r25
    12ec:	69 f0       	breq	.+26     	; 0x1308 <__vector_5+0x4e>
    12ee:	e0 e3       	ldi	r30, 0x30	; 48
    12f0:	fd e0       	ldi	r31, 0x0D	; 13
    12f2:	81 e0       	ldi	r24, 0x01	; 1
    12f4:	04 c0       	rjmp	.+8      	; 0x12fe <__vector_5+0x44>
    12f6:	8f 5f       	subi	r24, 0xFF	; 255
    12f8:	3c 96       	adiw	r30, 0x0c	; 12
    12fa:	88 32       	cpi	r24, 0x28	; 40
    12fc:	31 f0       	breq	.+12     	; 0x130a <__vector_5+0x50>
    12fe:	20 81       	ld	r18, Z
    1300:	31 81       	ldd	r19, Z+1	; 0x01
    1302:	23 2b       	or	r18, r19
    1304:	c1 f7       	brne	.-16     	; 0x12f6 <__vector_5+0x3c>
    1306:	01 c0       	rjmp	.+2      	; 0x130a <__vector_5+0x50>
    1308:	80 e0       	ldi	r24, 0x00	; 0
    130a:	40 98       	cbi	0x08, 0	; 8
    130c:	88 32       	cpi	r24, 0x28	; 40
    130e:	08 f0       	brcs	.+2      	; 0x1312 <__vector_5+0x58>
    1310:	87 e2       	ldi	r24, 0x27	; 39
    1312:	90 e0       	ldi	r25, 0x00	; 0
    1314:	9c 01       	movw	r18, r24
    1316:	22 0f       	add	r18, r18
    1318:	33 1f       	adc	r19, r19
    131a:	82 0f       	add	r24, r18
    131c:	93 1f       	adc	r25, r19
    131e:	88 0f       	add	r24, r24
    1320:	99 1f       	adc	r25, r25
    1322:	88 0f       	add	r24, r24
    1324:	99 1f       	adc	r25, r25
    1326:	60 e0       	ldi	r22, 0x00	; 0
    1328:	8c 5d       	subi	r24, 0xDC	; 220
    132a:	92 4f       	sbci	r25, 0xF2	; 242
    132c:	cb db       	rcall	.-2154   	; 0xac4 <can_read_message>
    132e:	61 e0       	ldi	r22, 0x01	; 1
    1330:	70 e0       	ldi	r23, 0x00	; 0
    1332:	80 ed       	ldi	r24, 0xD0	; 208
    1334:	97 e0       	ldi	r25, 0x07	; 7
    1336:	86 dc       	rcall	.-1780   	; 0xc44 <SetTimerTask>
    1338:	ff 91       	pop	r31
    133a:	ef 91       	pop	r30
    133c:	bf 91       	pop	r27
    133e:	af 91       	pop	r26
    1340:	9f 91       	pop	r25
    1342:	8f 91       	pop	r24
    1344:	7f 91       	pop	r23
    1346:	6f 91       	pop	r22
    1348:	5f 91       	pop	r21
    134a:	4f 91       	pop	r20
    134c:	3f 91       	pop	r19
    134e:	2f 91       	pop	r18
    1350:	0f 90       	pop	r0
    1352:	0b be       	out	0x3b, r0	; 59
    1354:	0f 90       	pop	r0
    1356:	0f be       	out	0x3f, r0	; 63
    1358:	0f 90       	pop	r0
    135a:	1f 90       	pop	r1
    135c:	18 95       	reti

0000135e <__vector_6>:
    135e:	1f 92       	push	r1
    1360:	0f 92       	push	r0
    1362:	0f b6       	in	r0, 0x3f	; 63
    1364:	0f 92       	push	r0
    1366:	11 24       	eor	r1, r1
    1368:	0b b6       	in	r0, 0x3b	; 59
    136a:	0f 92       	push	r0
    136c:	2f 93       	push	r18
    136e:	3f 93       	push	r19
    1370:	4f 93       	push	r20
    1372:	5f 93       	push	r21
    1374:	6f 93       	push	r22
    1376:	7f 93       	push	r23
    1378:	8f 93       	push	r24
    137a:	9f 93       	push	r25
    137c:	af 93       	push	r26
    137e:	bf 93       	push	r27
    1380:	ef 93       	push	r30
    1382:	ff 93       	push	r31
    1384:	94 b3       	in	r25, 0x14	; 20
    1386:	82 e0       	ldi	r24, 0x02	; 2
    1388:	89 27       	eor	r24, r25
    138a:	84 bb       	out	0x14, r24	; 20
    138c:	80 91 24 0d 	lds	r24, 0x0D24	; 0x800d24 <CAN_incoming_buffer>
    1390:	90 91 25 0d 	lds	r25, 0x0D25	; 0x800d25 <CAN_incoming_buffer+0x1>
    1394:	89 2b       	or	r24, r25
    1396:	69 f0       	breq	.+26     	; 0x13b2 <__vector_6+0x54>
    1398:	e0 e3       	ldi	r30, 0x30	; 48
    139a:	fd e0       	ldi	r31, 0x0D	; 13
    139c:	81 e0       	ldi	r24, 0x01	; 1
    139e:	04 c0       	rjmp	.+8      	; 0x13a8 <__vector_6+0x4a>
    13a0:	8f 5f       	subi	r24, 0xFF	; 255
    13a2:	3c 96       	adiw	r30, 0x0c	; 12
    13a4:	88 32       	cpi	r24, 0x28	; 40
    13a6:	31 f0       	breq	.+12     	; 0x13b4 <__vector_6+0x56>
    13a8:	20 81       	ld	r18, Z
    13aa:	31 81       	ldd	r19, Z+1	; 0x01
    13ac:	23 2b       	or	r18, r19
    13ae:	c1 f7       	brne	.-16     	; 0x13a0 <__vector_6+0x42>
    13b0:	01 c0       	rjmp	.+2      	; 0x13b4 <__vector_6+0x56>
    13b2:	80 e0       	ldi	r24, 0x00	; 0
    13b4:	88 32       	cpi	r24, 0x28	; 40
    13b6:	08 f0       	brcs	.+2      	; 0x13ba <__vector_6+0x5c>
    13b8:	87 e2       	ldi	r24, 0x27	; 39
    13ba:	90 e0       	ldi	r25, 0x00	; 0
    13bc:	9c 01       	movw	r18, r24
    13be:	22 0f       	add	r18, r18
    13c0:	33 1f       	adc	r19, r19
    13c2:	82 0f       	add	r24, r18
    13c4:	93 1f       	adc	r25, r19
    13c6:	88 0f       	add	r24, r24
    13c8:	99 1f       	adc	r25, r25
    13ca:	88 0f       	add	r24, r24
    13cc:	99 1f       	adc	r25, r25
    13ce:	61 e0       	ldi	r22, 0x01	; 1
    13d0:	8c 5d       	subi	r24, 0xDC	; 220
    13d2:	92 4f       	sbci	r25, 0xF2	; 242
    13d4:	77 db       	rcall	.-2322   	; 0xac4 <can_read_message>
    13d6:	6b e0       	ldi	r22, 0x0B	; 11
    13d8:	70 e0       	ldi	r23, 0x00	; 0
    13da:	80 ed       	ldi	r24, 0xD0	; 208
    13dc:	97 e0       	ldi	r25, 0x07	; 7
    13de:	32 dc       	rcall	.-1948   	; 0xc44 <SetTimerTask>
    13e0:	ff 91       	pop	r31
    13e2:	ef 91       	pop	r30
    13e4:	bf 91       	pop	r27
    13e6:	af 91       	pop	r26
    13e8:	9f 91       	pop	r25
    13ea:	8f 91       	pop	r24
    13ec:	7f 91       	pop	r23
    13ee:	6f 91       	pop	r22
    13f0:	5f 91       	pop	r21
    13f2:	4f 91       	pop	r20
    13f4:	3f 91       	pop	r19
    13f6:	2f 91       	pop	r18
    13f8:	0f 90       	pop	r0
    13fa:	0b be       	out	0x3b, r0	; 59
    13fc:	0f 90       	pop	r0
    13fe:	0f be       	out	0x3f, r0	; 63
    1400:	0f 90       	pop	r0
    1402:	1f 90       	pop	r1
    1404:	18 95       	reti

00001406 <__vector_7>:
    1406:	1f 92       	push	r1
    1408:	0f 92       	push	r0
    140a:	0f b6       	in	r0, 0x3f	; 63
    140c:	0f 92       	push	r0
    140e:	11 24       	eor	r1, r1
    1410:	0b b6       	in	r0, 0x3b	; 59
    1412:	0f 92       	push	r0
    1414:	2f 93       	push	r18
    1416:	3f 93       	push	r19
    1418:	4f 93       	push	r20
    141a:	5f 93       	push	r21
    141c:	6f 93       	push	r22
    141e:	7f 93       	push	r23
    1420:	8f 93       	push	r24
    1422:	9f 93       	push	r25
    1424:	af 93       	push	r26
    1426:	bf 93       	push	r27
    1428:	ef 93       	push	r30
    142a:	ff 93       	push	r31
    142c:	94 b3       	in	r25, 0x14	; 20
    142e:	81 e0       	ldi	r24, 0x01	; 1
    1430:	89 27       	eor	r24, r25
    1432:	84 bb       	out	0x14, r24	; 20
    1434:	80 91 24 0d 	lds	r24, 0x0D24	; 0x800d24 <CAN_incoming_buffer>
    1438:	90 91 25 0d 	lds	r25, 0x0D25	; 0x800d25 <CAN_incoming_buffer+0x1>
    143c:	89 2b       	or	r24, r25
    143e:	69 f0       	breq	.+26     	; 0x145a <__vector_7+0x54>
    1440:	e0 e3       	ldi	r30, 0x30	; 48
    1442:	fd e0       	ldi	r31, 0x0D	; 13
    1444:	81 e0       	ldi	r24, 0x01	; 1
    1446:	04 c0       	rjmp	.+8      	; 0x1450 <__vector_7+0x4a>
    1448:	8f 5f       	subi	r24, 0xFF	; 255
    144a:	3c 96       	adiw	r30, 0x0c	; 12
    144c:	88 32       	cpi	r24, 0x28	; 40
    144e:	31 f0       	breq	.+12     	; 0x145c <__vector_7+0x56>
    1450:	20 81       	ld	r18, Z
    1452:	31 81       	ldd	r19, Z+1	; 0x01
    1454:	23 2b       	or	r18, r19
    1456:	c1 f7       	brne	.-16     	; 0x1448 <__vector_7+0x42>
    1458:	01 c0       	rjmp	.+2      	; 0x145c <__vector_7+0x56>
    145a:	80 e0       	ldi	r24, 0x00	; 0
    145c:	88 32       	cpi	r24, 0x28	; 40
    145e:	08 f0       	brcs	.+2      	; 0x1462 <__vector_7+0x5c>
    1460:	87 e2       	ldi	r24, 0x27	; 39
    1462:	90 e0       	ldi	r25, 0x00	; 0
    1464:	9c 01       	movw	r18, r24
    1466:	22 0f       	add	r18, r18
    1468:	33 1f       	adc	r19, r19
    146a:	82 0f       	add	r24, r18
    146c:	93 1f       	adc	r25, r19
    146e:	88 0f       	add	r24, r24
    1470:	99 1f       	adc	r25, r25
    1472:	88 0f       	add	r24, r24
    1474:	99 1f       	adc	r25, r25
    1476:	62 e0       	ldi	r22, 0x02	; 2
    1478:	8c 5d       	subi	r24, 0xDC	; 220
    147a:	92 4f       	sbci	r25, 0xF2	; 242
    147c:	23 db       	rcall	.-2490   	; 0xac4 <can_read_message>
    147e:	61 e0       	ldi	r22, 0x01	; 1
    1480:	70 e0       	ldi	r23, 0x00	; 0
    1482:	80 ed       	ldi	r24, 0xD0	; 208
    1484:	97 e0       	ldi	r25, 0x07	; 7
    1486:	de db       	rcall	.-2116   	; 0xc44 <SetTimerTask>
    1488:	94 b3       	in	r25, 0x14	; 20
    148a:	81 e0       	ldi	r24, 0x01	; 1
    148c:	89 27       	eor	r24, r25
    148e:	84 bb       	out	0x14, r24	; 20
    1490:	ff 91       	pop	r31
    1492:	ef 91       	pop	r30
    1494:	bf 91       	pop	r27
    1496:	af 91       	pop	r26
    1498:	9f 91       	pop	r25
    149a:	8f 91       	pop	r24
    149c:	7f 91       	pop	r23
    149e:	6f 91       	pop	r22
    14a0:	5f 91       	pop	r21
    14a2:	4f 91       	pop	r20
    14a4:	3f 91       	pop	r19
    14a6:	2f 91       	pop	r18
    14a8:	0f 90       	pop	r0
    14aa:	0b be       	out	0x3b, r0	; 59
    14ac:	0f 90       	pop	r0
    14ae:	0f be       	out	0x3f, r0	; 63
    14b0:	0f 90       	pop	r0
    14b2:	1f 90       	pop	r1
    14b4:	18 95       	reti

000014b6 <media_sender>:
    14b6:	4f 92       	push	r4
    14b8:	5f 92       	push	r5
    14ba:	6f 92       	push	r6
    14bc:	7f 92       	push	r7
    14be:	8f 92       	push	r8
    14c0:	9f 92       	push	r9
    14c2:	af 92       	push	r10
    14c4:	bf 92       	push	r11
    14c6:	cf 92       	push	r12
    14c8:	df 92       	push	r13
    14ca:	ef 92       	push	r14
    14cc:	ff 92       	push	r15
    14ce:	0f 93       	push	r16
    14d0:	1f 93       	push	r17
    14d2:	cf 93       	push	r28
    14d4:	df 93       	push	r29
    14d6:	cd b7       	in	r28, 0x3d	; 61
    14d8:	de b7       	in	r29, 0x3e	; 62
    14da:	e4 97       	sbiw	r28, 0x34	; 52
    14dc:	0f b6       	in	r0, 0x3f	; 63
    14de:	f8 94       	cli
    14e0:	de bf       	out	0x3e, r29	; 62
    14e2:	0f be       	out	0x3f, r0	; 63
    14e4:	cd bf       	out	0x3d, r28	; 61
    14e6:	f8 94       	cli
    14e8:	0f e7       	ldi	r16, 0x7F	; 127
    14ea:	14 e0       	ldi	r17, 0x04	; 4
    14ec:	f8 01       	movw	r30, r16
    14ee:	81 81       	ldd	r24, Z+1	; 0x01
    14f0:	1f 92       	push	r1
    14f2:	8f 93       	push	r24
    14f4:	8f eb       	ldi	r24, 0xBF	; 191
    14f6:	92 e0       	ldi	r25, 0x02	; 2
    14f8:	9f 93       	push	r25
    14fa:	8f 93       	push	r24
    14fc:	ce 01       	movw	r24, r28
    14fe:	01 96       	adiw	r24, 0x01	; 1
    1500:	9f 93       	push	r25
    1502:	8f 93       	push	r24
    1504:	7f d3       	rcall	.+1790   	; 0x1c04 <sprintf>
    1506:	0f 90       	pop	r0
    1508:	0f 90       	pop	r0
    150a:	0f 90       	pop	r0
    150c:	0f 90       	pop	r0
    150e:	0f 90       	pop	r0
    1510:	0f 90       	pop	r0
    1512:	f8 01       	movw	r30, r16
    1514:	80 81       	ld	r24, Z
    1516:	88 23       	and	r24, r24
    1518:	09 f4       	brne	.+2      	; 0x151c <media_sender+0x66>
    151a:	59 c0       	rjmp	.+178    	; 0x15ce <media_sender+0x118>
    151c:	78 01       	movw	r14, r16
    151e:	0f 2e       	mov	r0, r31
    1520:	f9 e8       	ldi	r31, 0x89	; 137
    1522:	8f 2e       	mov	r8, r31
    1524:	f4 e0       	ldi	r31, 0x04	; 4
    1526:	9f 2e       	mov	r9, r31
    1528:	f0 2d       	mov	r31, r0
    152a:	58 01       	movw	r10, r16
    152c:	0f 2e       	mov	r0, r31
    152e:	f5 ef       	ldi	r31, 0xF5	; 245
    1530:	cf 2e       	mov	r12, r31
    1532:	f2 e0       	ldi	r31, 0x02	; 2
    1534:	df 2e       	mov	r13, r31
    1536:	f0 2d       	mov	r31, r0
    1538:	8e 01       	movw	r16, r28
    153a:	0d 5c       	subi	r16, 0xCD	; 205
    153c:	1f 4f       	sbci	r17, 0xFF	; 255
    153e:	ce 01       	movw	r24, r28
    1540:	01 96       	adiw	r24, 0x01	; 1
    1542:	3c 01       	movw	r6, r24
    1544:	0f 2e       	mov	r0, r31
    1546:	fc e2       	ldi	r31, 0x2C	; 44
    1548:	4f 2e       	mov	r4, r31
    154a:	51 2c       	mov	r5, r1
    154c:	f0 2d       	mov	r31, r0
    154e:	f5 01       	movw	r30, r10
    1550:	80 81       	ld	r24, Z
    1552:	1f 92       	push	r1
    1554:	8f 93       	push	r24
    1556:	df 92       	push	r13
    1558:	cf 92       	push	r12
    155a:	1f 93       	push	r17
    155c:	0f 93       	push	r16
    155e:	52 d3       	rcall	.+1700   	; 0x1c04 <sprintf>
    1560:	b8 01       	movw	r22, r16
    1562:	c3 01       	movw	r24, r6
    1564:	3d d3       	rcall	.+1658   	; 0x1be0 <strcat>
    1566:	0f 90       	pop	r0
    1568:	0f 90       	pop	r0
    156a:	0f 90       	pop	r0
    156c:	0f 90       	pop	r0
    156e:	0f 90       	pop	r0
    1570:	0f 90       	pop	r0
    1572:	f7 01       	movw	r30, r14
    1574:	82 81       	ldd	r24, Z+2	; 0x02
    1576:	88 23       	and	r24, r24
    1578:	71 f0       	breq	.+28     	; 0x1596 <media_sender+0xe0>
    157a:	f2 e0       	ldi	r31, 0x02	; 2
    157c:	ef 0e       	add	r14, r31
    157e:	f1 1c       	adc	r15, r1
    1580:	8e 14       	cp	r8, r14
    1582:	9f 04       	cpc	r9, r15
    1584:	41 f0       	breq	.+16     	; 0x1596 <media_sender+0xe0>
    1586:	f3 01       	movw	r30, r6
    1588:	01 90       	ld	r0, Z+
    158a:	00 20       	and	r0, r0
    158c:	e9 f7       	brne	.-6      	; 0x1588 <media_sender+0xd2>
    158e:	31 97       	sbiw	r30, 0x01	; 1
    1590:	51 82       	std	Z+1, r5	; 0x01
    1592:	40 82       	st	Z, r4
    1594:	dc cf       	rjmp	.-72     	; 0x154e <media_sender+0x98>
    1596:	ce 01       	movw	r24, r28
    1598:	01 96       	adiw	r24, 0x01	; 1
    159a:	dc 01       	movw	r26, r24
    159c:	0d 90       	ld	r0, X+
    159e:	00 20       	and	r0, r0
    15a0:	e9 f7       	brne	.-6      	; 0x159c <media_sender+0xe6>
    15a2:	11 97       	sbiw	r26, 0x01	; 1
    15a4:	25 e0       	ldi	r18, 0x05	; 5
    15a6:	e4 ee       	ldi	r30, 0xE4	; 228
    15a8:	f2 e0       	ldi	r31, 0x02	; 2
    15aa:	01 90       	ld	r0, Z+
    15ac:	0d 92       	st	X+, r0
    15ae:	2a 95       	dec	r18
    15b0:	e1 f7       	brne	.-8      	; 0x15aa <media_sender+0xf4>
    15b2:	ef e7       	ldi	r30, 0x7F	; 127
    15b4:	f4 e0       	ldi	r31, 0x04	; 4
    15b6:	12 82       	std	Z+2, r1	; 0x02
    15b8:	13 82       	std	Z+3, r1	; 0x03
    15ba:	14 82       	std	Z+4, r1	; 0x04
    15bc:	15 82       	std	Z+5, r1	; 0x05
    15be:	16 82       	std	Z+6, r1	; 0x06
    15c0:	17 82       	std	Z+7, r1	; 0x07
    15c2:	10 86       	std	Z+8, r1	; 0x08
    15c4:	11 86       	std	Z+9, r1	; 0x09
    15c6:	0e 94 3b 01 	call	0x276	; 0x276 <UART_Add_Message>
    15ca:	78 94       	sei
    15cc:	0e c0       	rjmp	.+28     	; 0x15ea <media_sender+0x134>
    15ce:	de 01       	movw	r26, r28
    15d0:	11 96       	adiw	r26, 0x01	; 1
    15d2:	0d 90       	ld	r0, X+
    15d4:	00 20       	and	r0, r0
    15d6:	e9 f7       	brne	.-6      	; 0x15d2 <media_sender+0x11c>
    15d8:	11 97       	sbiw	r26, 0x01	; 1
    15da:	85 e0       	ldi	r24, 0x05	; 5
    15dc:	e4 ee       	ldi	r30, 0xE4	; 228
    15de:	f2 e0       	ldi	r31, 0x02	; 2
    15e0:	01 90       	ld	r0, Z+
    15e2:	0d 92       	st	X+, r0
    15e4:	8a 95       	dec	r24
    15e6:	e1 f7       	brne	.-8      	; 0x15e0 <media_sender+0x12a>
    15e8:	f0 cf       	rjmp	.-32     	; 0x15ca <media_sender+0x114>
    15ea:	e4 96       	adiw	r28, 0x34	; 52
    15ec:	0f b6       	in	r0, 0x3f	; 63
    15ee:	f8 94       	cli
    15f0:	de bf       	out	0x3e, r29	; 62
    15f2:	0f be       	out	0x3f, r0	; 63
    15f4:	cd bf       	out	0x3d, r28	; 61
    15f6:	df 91       	pop	r29
    15f8:	cf 91       	pop	r28
    15fa:	1f 91       	pop	r17
    15fc:	0f 91       	pop	r16
    15fe:	ff 90       	pop	r15
    1600:	ef 90       	pop	r14
    1602:	df 90       	pop	r13
    1604:	cf 90       	pop	r12
    1606:	bf 90       	pop	r11
    1608:	af 90       	pop	r10
    160a:	9f 90       	pop	r9
    160c:	8f 90       	pop	r8
    160e:	7f 90       	pop	r7
    1610:	6f 90       	pop	r6
    1612:	5f 90       	pop	r5
    1614:	4f 90       	pop	r4
    1616:	08 95       	ret

00001618 <count_media>:
    1618:	f8 94       	cli
    161a:	80 91 0c 0f 	lds	r24, 0x0F0C	; 0x800f0c <media_state_counter>
    161e:	90 91 0d 0f 	lds	r25, 0x0F0D	; 0x800f0d <media_state_counter+0x1>
    1622:	01 96       	adiw	r24, 0x01	; 1
    1624:	90 93 0d 0f 	sts	0x0F0D, r25	; 0x800f0d <media_state_counter+0x1>
    1628:	80 93 0c 0f 	sts	0x0F0C, r24	; 0x800f0c <media_state_counter>
    162c:	20 91 08 0f 	lds	r18, 0x0F08	; 0x800f08 <media_state_counter_resume>
    1630:	21 30       	cpi	r18, 0x01	; 1
    1632:	49 f4       	brne	.+18     	; 0x1646 <count_media+0x2e>
    1634:	89 3e       	cpi	r24, 0xE9	; 233
    1636:	93 40       	sbci	r25, 0x03	; 3
    1638:	48 f4       	brcc	.+18     	; 0x164c <count_media+0x34>
    163a:	61 e0       	ldi	r22, 0x01	; 1
    163c:	70 e0       	ldi	r23, 0x00	; 0
    163e:	8c e0       	ldi	r24, 0x0C	; 12
    1640:	9b e0       	ldi	r25, 0x0B	; 11
    1642:	00 db       	rcall	.-2560   	; 0xc44 <SetTimerTask>
    1644:	24 c0       	rjmp	.+72     	; 0x168e <count_media+0x76>
    1646:	89 3e       	cpi	r24, 0xE9	; 233
    1648:	93 40       	sbci	r25, 0x03	; 3
    164a:	18 f0       	brcs	.+6      	; 0x1652 <count_media+0x3a>
    164c:	34 df       	rcall	.-408    	; 0x14b6 <media_sender>
    164e:	91 e0       	ldi	r25, 0x01	; 1
    1650:	01 c0       	rjmp	.+2      	; 0x1654 <count_media+0x3c>
    1652:	90 e0       	ldi	r25, 0x00	; 0
    1654:	80 91 7f 04 	lds	r24, 0x047F	; 0x80047f <media_button_buffer>
    1658:	88 23       	and	r24, r24
    165a:	71 f0       	breq	.+28     	; 0x1678 <count_media+0x60>
    165c:	af e7       	ldi	r26, 0x7F	; 127
    165e:	b4 e0       	ldi	r27, 0x04	; 4
    1660:	e1 e0       	ldi	r30, 0x01	; 1
    1662:	04 c0       	rjmp	.+8      	; 0x166c <count_media+0x54>
    1664:	ef 5f       	subi	r30, 0xFF	; 255
    1666:	12 96       	adiw	r26, 0x02	; 2
    1668:	e5 30       	cpi	r30, 0x05	; 5
    166a:	39 f0       	breq	.+14     	; 0x167a <count_media+0x62>
    166c:	12 96       	adiw	r26, 0x02	; 2
    166e:	8c 91       	ld	r24, X
    1670:	12 97       	sbiw	r26, 0x02	; 2
    1672:	81 11       	cpse	r24, r1
    1674:	f7 cf       	rjmp	.-18     	; 0x1664 <count_media+0x4c>
    1676:	01 c0       	rjmp	.+2      	; 0x167a <count_media+0x62>
    1678:	e0 e0       	ldi	r30, 0x00	; 0
    167a:	f0 e0       	ldi	r31, 0x00	; 0
    167c:	ee 0f       	add	r30, r30
    167e:	ff 1f       	adc	r31, r31
    1680:	e1 58       	subi	r30, 0x81	; 129
    1682:	fb 4f       	sbci	r31, 0xFB	; 251
    1684:	80 91 07 0f 	lds	r24, 0x0F07	; 0x800f07 <media_button>
    1688:	80 83       	st	Z, r24
    168a:	91 83       	std	Z+1, r25	; 0x01
    168c:	14 df       	rcall	.-472    	; 0x14b6 <media_sender>
    168e:	78 94       	sei
    1690:	08 95       	ret

00001692 <start_SPI>:
	SREG=oldSREG;
}

void start_SPI()
{
	cli();UART_Add_Message("0-------");
    1692:	f8 94       	cli
    1694:	8c e4       	ldi	r24, 0x4C	; 76
    1696:	93 e0       	ldi	r25, 0x03	; 3
    1698:	0e 94 3b 01 	call	0x276	; 0x276 <UART_Add_Message>
	
	MCP2515_init(0);
    169c:	80 e0       	ldi	r24, 0x00	; 0
    169e:	8b d9       	rcall	.-3306   	; 0x9b6 <MCP2515_init>
	UART_Add_Message("1--------");
    16a0:	85 e5       	ldi	r24, 0x55	; 85
    16a2:	93 e0       	ldi	r25, 0x03	; 3
    16a4:	0e 94 3b 01 	call	0x276	; 0x276 <UART_Add_Message>
	MCP2515_init(1);
    16a8:	81 e0       	ldi	r24, 0x01	; 1
	UART_Add_Message("2--------");
    16aa:	85 d9       	rcall	.-3318   	; 0x9b6 <MCP2515_init>
    16ac:	8f e5       	ldi	r24, 0x5F	; 95
    16ae:	93 e0       	ldi	r25, 0x03	; 3
	MCP2515_init(2);
    16b0:	0e 94 3b 01 	call	0x276	; 0x276 <UART_Add_Message>
    16b4:	82 e0       	ldi	r24, 0x02	; 2
	UART_Add_Message("3--------");
    16b6:	7f d9       	rcall	.-3330   	; 0x9b6 <MCP2515_init>
    16b8:	89 e6       	ldi	r24, 0x69	; 105
    16ba:	93 e0       	ldi	r25, 0x03	; 3
    16bc:	0e 94 3b 01 	call	0x276	; 0x276 <UART_Add_Message>
//	SetTimerTask(renew_message,50);
	EIMSK|=(1<<INT4)|(1<<INT5)|(1<<INT6);
    16c0:	8d b3       	in	r24, 0x1d	; 29
    16c2:	80 67       	ori	r24, 0x70	; 112
	sei();
    16c4:	8d bb       	out	0x1d, r24	; 29
    16c6:	78 94       	sei
    16c8:	08 95       	ret

000016ca <main>:
	change_resend(stat);
}

int main(void)
{	
	button=0;
    16ca:	10 92 04 0f 	sts	0x0F04, r1	; 0x800f04 <button>
	media_mode=0;
    16ce:	10 92 09 0f 	sts	0x0F09, r1	; 0x800f09 <media_mode>
	DDRC|=(1<<0)|(1<<1)|(1<<2)|(1<<3)|(1<<4)|(1<<5)|(1<<6)|(1<<7);
    16d2:	87 b1       	in	r24, 0x07	; 7
    16d4:	8f ef       	ldi	r24, 0xFF	; 255
	InitAll();
    16d6:	87 b9       	out	0x07, r24	; 7
    16d8:	a2 db       	rcall	.-2236   	; 0xe1e <InitAll>
    16da:	69 da       	rcall	.-2862   	; 0xbae <InitRTOS>
    16dc:	94 db       	rcall	.-2264   	; 0xe06 <RunRTOS>
    16de:	0e 94 2f 01 	call	0x25e	; 0x25e <init_UART_Buffer>
    16e2:	83 e7       	ldi	r24, 0x73	; 115
    16e4:	93 e0       	ldi	r25, 0x03	; 3
    16e6:	0e 94 3b 01 	call	0x276	; 0x276 <UART_Add_Message>
    16ea:	81 e0       	ldi	r24, 0x01	; 1
    16ec:	90 e0       	ldi	r25, 0x00	; 0
    16ee:	90 93 0f 0f 	sts	0x0F0F, r25	; 0x800f0f <stat+0x1>
    16f2:	80 93 0e 0f 	sts	0x0F0E, r24	; 0x800f0e <stat>
    16f6:	87 b1       	in	r24, 0x07	; 7
    16f8:	8c 6f       	ori	r24, 0xFC	; 252
    16fa:	87 b9       	out	0x07, r24	; 7
    16fc:	8a b1       	in	r24, 0x0a	; 10
    16fe:	8a b9       	out	0x0a, r24	; 10
    1700:	88 b1       	in	r24, 0x08	; 8
    1702:	83 70       	andi	r24, 0x03	; 3
    1704:	88 b9       	out	0x08, r24	; 8
    1706:	10 ba       	out	0x10, r1	; 16
    1708:	11 ba       	out	0x11, r1	; 17
    170a:	10 92 0a 0f 	sts	0x0F0A, r1	; 0x800f0a <Vin_mode>
    170e:	10 92 0d 0f 	sts	0x0F0D, r1	; 0x800f0d <media_state_counter+0x1>
    1712:	10 92 0c 0f 	sts	0x0F0C, r1	; 0x800f0c <media_state_counter>
    1716:	10 92 06 0f 	sts	0x0F06, r1	; 0x800f06 <current_ADC_input>
    171a:	81 e0       	ldi	r24, 0x01	; 1
    171c:	80 93 0b 0f 	sts	0x0F0B, r24	; 0x800f0b <ADC_ready>
    1720:	9a db       	rcall	.-2252   	; 0xe56 <reenable_ADC>
    1722:	e6 db       	rcall	.-2100   	; 0xef0 <pushmedia>
    1724:	e4 e2       	ldi	r30, 0x24	; 36
    1726:	fd e0       	ldi	r31, 0x0D	; 13
    1728:	84 e0       	ldi	r24, 0x04	; 4
    172a:	9f e0       	ldi	r25, 0x0F	; 15
    172c:	11 82       	std	Z+1, r1	; 0x01
    172e:	10 82       	st	Z, r1
    1730:	3c 96       	adiw	r30, 0x0c	; 12
    1732:	e8 17       	cp	r30, r24
    1734:	f9 07       	cpc	r31, r25
    1736:	d1 f7       	brne	.-12     	; 0x172c <main+0x62>
    1738:	0e 94 eb 01 	call	0x3d6	; 0x3d6 <init_SPI>
    173c:	aa df       	rcall	.-172    	; 0x1692 <start_SPI>
    173e:	80 ed       	ldi	r24, 0xD0	; 208
    1740:	97 e0       	ldi	r25, 0x07	; 7
    1742:	58 da       	rcall	.-2896   	; 0xbf4 <SetTask>
    1744:	10 92 08 0f 	sts	0x0F08, r1	; 0x800f08 <media_state_counter_resume>
    1748:	10 92 0d 0f 	sts	0x0F0D, r1	; 0x800f0d <media_state_counter+0x1>
    174c:	10 92 0c 0f 	sts	0x0F0C, r1	; 0x800f0c <media_state_counter>
    1750:	a8 95       	wdr
    1752:	e7 da       	rcall	.-2610   	; 0xd22 <TaskManager>
    1754:	0e 94 81 01 	call	0x302	; 0x302 <UART_Command_Processor>
    1758:	fb cf       	rjmp	.-10     	; 0x1750 <main+0x86>

0000175a <__divsf3>:
    175a:	0c d0       	rcall	.+24     	; 0x1774 <__divsf3x>
    175c:	e6 c0       	rjmp	.+460    	; 0x192a <__fp_round>
    175e:	de d0       	rcall	.+444    	; 0x191c <__fp_pscB>
    1760:	40 f0       	brcs	.+16     	; 0x1772 <__divsf3+0x18>
    1762:	d5 d0       	rcall	.+426    	; 0x190e <__fp_pscA>
    1764:	30 f0       	brcs	.+12     	; 0x1772 <__divsf3+0x18>
    1766:	21 f4       	brne	.+8      	; 0x1770 <__divsf3+0x16>
    1768:	5f 3f       	cpi	r21, 0xFF	; 255
    176a:	19 f0       	breq	.+6      	; 0x1772 <__divsf3+0x18>
    176c:	c7 c0       	rjmp	.+398    	; 0x18fc <__fp_inf>
    176e:	51 11       	cpse	r21, r1
    1770:	10 c1       	rjmp	.+544    	; 0x1992 <__fp_szero>
    1772:	ca c0       	rjmp	.+404    	; 0x1908 <__fp_nan>

00001774 <__divsf3x>:
    1774:	eb d0       	rcall	.+470    	; 0x194c <__fp_split3>
    1776:	98 f3       	brcs	.-26     	; 0x175e <__divsf3+0x4>

00001778 <__divsf3_pse>:
    1778:	99 23       	and	r25, r25
    177a:	c9 f3       	breq	.-14     	; 0x176e <__divsf3+0x14>
    177c:	55 23       	and	r21, r21
    177e:	b1 f3       	breq	.-20     	; 0x176c <__divsf3+0x12>
    1780:	95 1b       	sub	r25, r21
    1782:	55 0b       	sbc	r21, r21
    1784:	bb 27       	eor	r27, r27
    1786:	aa 27       	eor	r26, r26
    1788:	62 17       	cp	r22, r18
    178a:	73 07       	cpc	r23, r19
    178c:	84 07       	cpc	r24, r20
    178e:	38 f0       	brcs	.+14     	; 0x179e <__divsf3_pse+0x26>
    1790:	9f 5f       	subi	r25, 0xFF	; 255
    1792:	5f 4f       	sbci	r21, 0xFF	; 255
    1794:	22 0f       	add	r18, r18
    1796:	33 1f       	adc	r19, r19
    1798:	44 1f       	adc	r20, r20
    179a:	aa 1f       	adc	r26, r26
    179c:	a9 f3       	breq	.-22     	; 0x1788 <__divsf3_pse+0x10>
    179e:	33 d0       	rcall	.+102    	; 0x1806 <__divsf3_pse+0x8e>
    17a0:	0e 2e       	mov	r0, r30
    17a2:	3a f0       	brmi	.+14     	; 0x17b2 <__divsf3_pse+0x3a>
    17a4:	e0 e8       	ldi	r30, 0x80	; 128
    17a6:	30 d0       	rcall	.+96     	; 0x1808 <__divsf3_pse+0x90>
    17a8:	91 50       	subi	r25, 0x01	; 1
    17aa:	50 40       	sbci	r21, 0x00	; 0
    17ac:	e6 95       	lsr	r30
    17ae:	00 1c       	adc	r0, r0
    17b0:	ca f7       	brpl	.-14     	; 0x17a4 <__divsf3_pse+0x2c>
    17b2:	29 d0       	rcall	.+82     	; 0x1806 <__divsf3_pse+0x8e>
    17b4:	fe 2f       	mov	r31, r30
    17b6:	27 d0       	rcall	.+78     	; 0x1806 <__divsf3_pse+0x8e>
    17b8:	66 0f       	add	r22, r22
    17ba:	77 1f       	adc	r23, r23
    17bc:	88 1f       	adc	r24, r24
    17be:	bb 1f       	adc	r27, r27
    17c0:	26 17       	cp	r18, r22
    17c2:	37 07       	cpc	r19, r23
    17c4:	48 07       	cpc	r20, r24
    17c6:	ab 07       	cpc	r26, r27
    17c8:	b0 e8       	ldi	r27, 0x80	; 128
    17ca:	09 f0       	breq	.+2      	; 0x17ce <__divsf3_pse+0x56>
    17cc:	bb 0b       	sbc	r27, r27
    17ce:	80 2d       	mov	r24, r0
    17d0:	bf 01       	movw	r22, r30
    17d2:	ff 27       	eor	r31, r31
    17d4:	93 58       	subi	r25, 0x83	; 131
    17d6:	5f 4f       	sbci	r21, 0xFF	; 255
    17d8:	2a f0       	brmi	.+10     	; 0x17e4 <__divsf3_pse+0x6c>
    17da:	9e 3f       	cpi	r25, 0xFE	; 254
    17dc:	51 05       	cpc	r21, r1
    17de:	68 f0       	brcs	.+26     	; 0x17fa <__divsf3_pse+0x82>
    17e0:	8d c0       	rjmp	.+282    	; 0x18fc <__fp_inf>
    17e2:	d7 c0       	rjmp	.+430    	; 0x1992 <__fp_szero>
    17e4:	5f 3f       	cpi	r21, 0xFF	; 255
    17e6:	ec f3       	brlt	.-6      	; 0x17e2 <__divsf3_pse+0x6a>
    17e8:	98 3e       	cpi	r25, 0xE8	; 232
    17ea:	dc f3       	brlt	.-10     	; 0x17e2 <__divsf3_pse+0x6a>
    17ec:	86 95       	lsr	r24
    17ee:	77 95       	ror	r23
    17f0:	67 95       	ror	r22
    17f2:	b7 95       	ror	r27
    17f4:	f7 95       	ror	r31
    17f6:	9f 5f       	subi	r25, 0xFF	; 255
    17f8:	c9 f7       	brne	.-14     	; 0x17ec <__divsf3_pse+0x74>
    17fa:	88 0f       	add	r24, r24
    17fc:	91 1d       	adc	r25, r1
    17fe:	96 95       	lsr	r25
    1800:	87 95       	ror	r24
    1802:	97 f9       	bld	r25, 7
    1804:	08 95       	ret
    1806:	e1 e0       	ldi	r30, 0x01	; 1
    1808:	66 0f       	add	r22, r22
    180a:	77 1f       	adc	r23, r23
    180c:	88 1f       	adc	r24, r24
    180e:	bb 1f       	adc	r27, r27
    1810:	62 17       	cp	r22, r18
    1812:	73 07       	cpc	r23, r19
    1814:	84 07       	cpc	r24, r20
    1816:	ba 07       	cpc	r27, r26
    1818:	20 f0       	brcs	.+8      	; 0x1822 <__divsf3_pse+0xaa>
    181a:	62 1b       	sub	r22, r18
    181c:	73 0b       	sbc	r23, r19
    181e:	84 0b       	sbc	r24, r20
    1820:	ba 0b       	sbc	r27, r26
    1822:	ee 1f       	adc	r30, r30
    1824:	88 f7       	brcc	.-30     	; 0x1808 <__divsf3_pse+0x90>
    1826:	e0 95       	com	r30
    1828:	08 95       	ret

0000182a <__fixunssfsi>:
    182a:	98 d0       	rcall	.+304    	; 0x195c <__fp_splitA>
    182c:	88 f0       	brcs	.+34     	; 0x1850 <__fixunssfsi+0x26>
    182e:	9f 57       	subi	r25, 0x7F	; 127
    1830:	90 f0       	brcs	.+36     	; 0x1856 <__fixunssfsi+0x2c>
    1832:	b9 2f       	mov	r27, r25
    1834:	99 27       	eor	r25, r25
    1836:	b7 51       	subi	r27, 0x17	; 23
    1838:	a0 f0       	brcs	.+40     	; 0x1862 <__fixunssfsi+0x38>
    183a:	d1 f0       	breq	.+52     	; 0x1870 <__fixunssfsi+0x46>
    183c:	66 0f       	add	r22, r22
    183e:	77 1f       	adc	r23, r23
    1840:	88 1f       	adc	r24, r24
    1842:	99 1f       	adc	r25, r25
    1844:	1a f0       	brmi	.+6      	; 0x184c <__fixunssfsi+0x22>
    1846:	ba 95       	dec	r27
    1848:	c9 f7       	brne	.-14     	; 0x183c <__fixunssfsi+0x12>
    184a:	12 c0       	rjmp	.+36     	; 0x1870 <__fixunssfsi+0x46>
    184c:	b1 30       	cpi	r27, 0x01	; 1
    184e:	81 f0       	breq	.+32     	; 0x1870 <__fixunssfsi+0x46>
    1850:	9f d0       	rcall	.+318    	; 0x1990 <__fp_zero>
    1852:	b1 e0       	ldi	r27, 0x01	; 1
    1854:	08 95       	ret
    1856:	9c c0       	rjmp	.+312    	; 0x1990 <__fp_zero>
    1858:	67 2f       	mov	r22, r23
    185a:	78 2f       	mov	r23, r24
    185c:	88 27       	eor	r24, r24
    185e:	b8 5f       	subi	r27, 0xF8	; 248
    1860:	39 f0       	breq	.+14     	; 0x1870 <__fixunssfsi+0x46>
    1862:	b9 3f       	cpi	r27, 0xF9	; 249
    1864:	cc f3       	brlt	.-14     	; 0x1858 <__fixunssfsi+0x2e>
    1866:	86 95       	lsr	r24
    1868:	77 95       	ror	r23
    186a:	67 95       	ror	r22
    186c:	b3 95       	inc	r27
    186e:	d9 f7       	brne	.-10     	; 0x1866 <__fixunssfsi+0x3c>
    1870:	3e f4       	brtc	.+14     	; 0x1880 <__fixunssfsi+0x56>
    1872:	90 95       	com	r25
    1874:	80 95       	com	r24
    1876:	70 95       	com	r23
    1878:	61 95       	neg	r22
    187a:	7f 4f       	sbci	r23, 0xFF	; 255
    187c:	8f 4f       	sbci	r24, 0xFF	; 255
    187e:	9f 4f       	sbci	r25, 0xFF	; 255
    1880:	08 95       	ret

00001882 <__floatunsisf>:
    1882:	e8 94       	clt
    1884:	09 c0       	rjmp	.+18     	; 0x1898 <__floatsisf+0x12>

00001886 <__floatsisf>:
    1886:	97 fb       	bst	r25, 7
    1888:	3e f4       	brtc	.+14     	; 0x1898 <__floatsisf+0x12>
    188a:	90 95       	com	r25
    188c:	80 95       	com	r24
    188e:	70 95       	com	r23
    1890:	61 95       	neg	r22
    1892:	7f 4f       	sbci	r23, 0xFF	; 255
    1894:	8f 4f       	sbci	r24, 0xFF	; 255
    1896:	9f 4f       	sbci	r25, 0xFF	; 255
    1898:	99 23       	and	r25, r25
    189a:	a9 f0       	breq	.+42     	; 0x18c6 <__floatsisf+0x40>
    189c:	f9 2f       	mov	r31, r25
    189e:	96 e9       	ldi	r25, 0x96	; 150
    18a0:	bb 27       	eor	r27, r27
    18a2:	93 95       	inc	r25
    18a4:	f6 95       	lsr	r31
    18a6:	87 95       	ror	r24
    18a8:	77 95       	ror	r23
    18aa:	67 95       	ror	r22
    18ac:	b7 95       	ror	r27
    18ae:	f1 11       	cpse	r31, r1
    18b0:	f8 cf       	rjmp	.-16     	; 0x18a2 <__floatsisf+0x1c>
    18b2:	fa f4       	brpl	.+62     	; 0x18f2 <__floatsisf+0x6c>
    18b4:	bb 0f       	add	r27, r27
    18b6:	11 f4       	brne	.+4      	; 0x18bc <__floatsisf+0x36>
    18b8:	60 ff       	sbrs	r22, 0
    18ba:	1b c0       	rjmp	.+54     	; 0x18f2 <__floatsisf+0x6c>
    18bc:	6f 5f       	subi	r22, 0xFF	; 255
    18be:	7f 4f       	sbci	r23, 0xFF	; 255
    18c0:	8f 4f       	sbci	r24, 0xFF	; 255
    18c2:	9f 4f       	sbci	r25, 0xFF	; 255
    18c4:	16 c0       	rjmp	.+44     	; 0x18f2 <__floatsisf+0x6c>
    18c6:	88 23       	and	r24, r24
    18c8:	11 f0       	breq	.+4      	; 0x18ce <__floatsisf+0x48>
    18ca:	96 e9       	ldi	r25, 0x96	; 150
    18cc:	11 c0       	rjmp	.+34     	; 0x18f0 <__floatsisf+0x6a>
    18ce:	77 23       	and	r23, r23
    18d0:	21 f0       	breq	.+8      	; 0x18da <__floatsisf+0x54>
    18d2:	9e e8       	ldi	r25, 0x8E	; 142
    18d4:	87 2f       	mov	r24, r23
    18d6:	76 2f       	mov	r23, r22
    18d8:	05 c0       	rjmp	.+10     	; 0x18e4 <__floatsisf+0x5e>
    18da:	66 23       	and	r22, r22
    18dc:	71 f0       	breq	.+28     	; 0x18fa <__floatsisf+0x74>
    18de:	96 e8       	ldi	r25, 0x86	; 134
    18e0:	86 2f       	mov	r24, r22
    18e2:	70 e0       	ldi	r23, 0x00	; 0
    18e4:	60 e0       	ldi	r22, 0x00	; 0
    18e6:	2a f0       	brmi	.+10     	; 0x18f2 <__floatsisf+0x6c>
    18e8:	9a 95       	dec	r25
    18ea:	66 0f       	add	r22, r22
    18ec:	77 1f       	adc	r23, r23
    18ee:	88 1f       	adc	r24, r24
    18f0:	da f7       	brpl	.-10     	; 0x18e8 <__floatsisf+0x62>
    18f2:	88 0f       	add	r24, r24
    18f4:	96 95       	lsr	r25
    18f6:	87 95       	ror	r24
    18f8:	97 f9       	bld	r25, 7
    18fa:	08 95       	ret

000018fc <__fp_inf>:
    18fc:	97 f9       	bld	r25, 7
    18fe:	9f 67       	ori	r25, 0x7F	; 127
    1900:	80 e8       	ldi	r24, 0x80	; 128
    1902:	70 e0       	ldi	r23, 0x00	; 0
    1904:	60 e0       	ldi	r22, 0x00	; 0
    1906:	08 95       	ret

00001908 <__fp_nan>:
    1908:	9f ef       	ldi	r25, 0xFF	; 255
    190a:	80 ec       	ldi	r24, 0xC0	; 192
    190c:	08 95       	ret

0000190e <__fp_pscA>:
    190e:	00 24       	eor	r0, r0
    1910:	0a 94       	dec	r0
    1912:	16 16       	cp	r1, r22
    1914:	17 06       	cpc	r1, r23
    1916:	18 06       	cpc	r1, r24
    1918:	09 06       	cpc	r0, r25
    191a:	08 95       	ret

0000191c <__fp_pscB>:
    191c:	00 24       	eor	r0, r0
    191e:	0a 94       	dec	r0
    1920:	12 16       	cp	r1, r18
    1922:	13 06       	cpc	r1, r19
    1924:	14 06       	cpc	r1, r20
    1926:	05 06       	cpc	r0, r21
    1928:	08 95       	ret

0000192a <__fp_round>:
    192a:	09 2e       	mov	r0, r25
    192c:	03 94       	inc	r0
    192e:	00 0c       	add	r0, r0
    1930:	11 f4       	brne	.+4      	; 0x1936 <__fp_round+0xc>
    1932:	88 23       	and	r24, r24
    1934:	52 f0       	brmi	.+20     	; 0x194a <__fp_round+0x20>
    1936:	bb 0f       	add	r27, r27
    1938:	40 f4       	brcc	.+16     	; 0x194a <__fp_round+0x20>
    193a:	bf 2b       	or	r27, r31
    193c:	11 f4       	brne	.+4      	; 0x1942 <__fp_round+0x18>
    193e:	60 ff       	sbrs	r22, 0
    1940:	04 c0       	rjmp	.+8      	; 0x194a <__fp_round+0x20>
    1942:	6f 5f       	subi	r22, 0xFF	; 255
    1944:	7f 4f       	sbci	r23, 0xFF	; 255
    1946:	8f 4f       	sbci	r24, 0xFF	; 255
    1948:	9f 4f       	sbci	r25, 0xFF	; 255
    194a:	08 95       	ret

0000194c <__fp_split3>:
    194c:	57 fd       	sbrc	r21, 7
    194e:	90 58       	subi	r25, 0x80	; 128
    1950:	44 0f       	add	r20, r20
    1952:	55 1f       	adc	r21, r21
    1954:	59 f0       	breq	.+22     	; 0x196c <__fp_splitA+0x10>
    1956:	5f 3f       	cpi	r21, 0xFF	; 255
    1958:	71 f0       	breq	.+28     	; 0x1976 <__fp_splitA+0x1a>
    195a:	47 95       	ror	r20

0000195c <__fp_splitA>:
    195c:	88 0f       	add	r24, r24
    195e:	97 fb       	bst	r25, 7
    1960:	99 1f       	adc	r25, r25
    1962:	61 f0       	breq	.+24     	; 0x197c <__fp_splitA+0x20>
    1964:	9f 3f       	cpi	r25, 0xFF	; 255
    1966:	79 f0       	breq	.+30     	; 0x1986 <__fp_splitA+0x2a>
    1968:	87 95       	ror	r24
    196a:	08 95       	ret
    196c:	12 16       	cp	r1, r18
    196e:	13 06       	cpc	r1, r19
    1970:	14 06       	cpc	r1, r20
    1972:	55 1f       	adc	r21, r21
    1974:	f2 cf       	rjmp	.-28     	; 0x195a <__fp_split3+0xe>
    1976:	46 95       	lsr	r20
    1978:	f1 df       	rcall	.-30     	; 0x195c <__fp_splitA>
    197a:	08 c0       	rjmp	.+16     	; 0x198c <__fp_splitA+0x30>
    197c:	16 16       	cp	r1, r22
    197e:	17 06       	cpc	r1, r23
    1980:	18 06       	cpc	r1, r24
    1982:	99 1f       	adc	r25, r25
    1984:	f1 cf       	rjmp	.-30     	; 0x1968 <__fp_splitA+0xc>
    1986:	86 95       	lsr	r24
    1988:	71 05       	cpc	r23, r1
    198a:	61 05       	cpc	r22, r1
    198c:	08 94       	sec
    198e:	08 95       	ret

00001990 <__fp_zero>:
    1990:	e8 94       	clt

00001992 <__fp_szero>:
    1992:	bb 27       	eor	r27, r27
    1994:	66 27       	eor	r22, r22
    1996:	77 27       	eor	r23, r23
    1998:	cb 01       	movw	r24, r22
    199a:	97 f9       	bld	r25, 7
    199c:	08 95       	ret

0000199e <malloc>:
    199e:	0f 93       	push	r16
    19a0:	1f 93       	push	r17
    19a2:	cf 93       	push	r28
    19a4:	df 93       	push	r29
    19a6:	82 30       	cpi	r24, 0x02	; 2
    19a8:	91 05       	cpc	r25, r1
    19aa:	10 f4       	brcc	.+4      	; 0x19b0 <malloc+0x12>
    19ac:	82 e0       	ldi	r24, 0x02	; 2
    19ae:	90 e0       	ldi	r25, 0x00	; 0
    19b0:	e0 91 13 0f 	lds	r30, 0x0F13	; 0x800f13 <__flp>
    19b4:	f0 91 14 0f 	lds	r31, 0x0F14	; 0x800f14 <__flp+0x1>
    19b8:	20 e0       	ldi	r18, 0x00	; 0
    19ba:	30 e0       	ldi	r19, 0x00	; 0
    19bc:	a0 e0       	ldi	r26, 0x00	; 0
    19be:	b0 e0       	ldi	r27, 0x00	; 0
    19c0:	30 97       	sbiw	r30, 0x00	; 0
    19c2:	19 f1       	breq	.+70     	; 0x1a0a <malloc+0x6c>
    19c4:	40 81       	ld	r20, Z
    19c6:	51 81       	ldd	r21, Z+1	; 0x01
    19c8:	02 81       	ldd	r16, Z+2	; 0x02
    19ca:	13 81       	ldd	r17, Z+3	; 0x03
    19cc:	48 17       	cp	r20, r24
    19ce:	59 07       	cpc	r21, r25
    19d0:	c8 f0       	brcs	.+50     	; 0x1a04 <malloc+0x66>
    19d2:	84 17       	cp	r24, r20
    19d4:	95 07       	cpc	r25, r21
    19d6:	69 f4       	brne	.+26     	; 0x19f2 <malloc+0x54>
    19d8:	10 97       	sbiw	r26, 0x00	; 0
    19da:	31 f0       	breq	.+12     	; 0x19e8 <malloc+0x4a>
    19dc:	12 96       	adiw	r26, 0x02	; 2
    19de:	0c 93       	st	X, r16
    19e0:	12 97       	sbiw	r26, 0x02	; 2
    19e2:	13 96       	adiw	r26, 0x03	; 3
    19e4:	1c 93       	st	X, r17
    19e6:	27 c0       	rjmp	.+78     	; 0x1a36 <malloc+0x98>
    19e8:	00 93 13 0f 	sts	0x0F13, r16	; 0x800f13 <__flp>
    19ec:	10 93 14 0f 	sts	0x0F14, r17	; 0x800f14 <__flp+0x1>
    19f0:	22 c0       	rjmp	.+68     	; 0x1a36 <malloc+0x98>
    19f2:	21 15       	cp	r18, r1
    19f4:	31 05       	cpc	r19, r1
    19f6:	19 f0       	breq	.+6      	; 0x19fe <malloc+0x60>
    19f8:	42 17       	cp	r20, r18
    19fa:	53 07       	cpc	r21, r19
    19fc:	18 f4       	brcc	.+6      	; 0x1a04 <malloc+0x66>
    19fe:	9a 01       	movw	r18, r20
    1a00:	bd 01       	movw	r22, r26
    1a02:	ef 01       	movw	r28, r30
    1a04:	df 01       	movw	r26, r30
    1a06:	f8 01       	movw	r30, r16
    1a08:	db cf       	rjmp	.-74     	; 0x19c0 <malloc+0x22>
    1a0a:	21 15       	cp	r18, r1
    1a0c:	31 05       	cpc	r19, r1
    1a0e:	f9 f0       	breq	.+62     	; 0x1a4e <malloc+0xb0>
    1a10:	28 1b       	sub	r18, r24
    1a12:	39 0b       	sbc	r19, r25
    1a14:	24 30       	cpi	r18, 0x04	; 4
    1a16:	31 05       	cpc	r19, r1
    1a18:	80 f4       	brcc	.+32     	; 0x1a3a <malloc+0x9c>
    1a1a:	8a 81       	ldd	r24, Y+2	; 0x02
    1a1c:	9b 81       	ldd	r25, Y+3	; 0x03
    1a1e:	61 15       	cp	r22, r1
    1a20:	71 05       	cpc	r23, r1
    1a22:	21 f0       	breq	.+8      	; 0x1a2c <malloc+0x8e>
    1a24:	fb 01       	movw	r30, r22
    1a26:	93 83       	std	Z+3, r25	; 0x03
    1a28:	82 83       	std	Z+2, r24	; 0x02
    1a2a:	04 c0       	rjmp	.+8      	; 0x1a34 <malloc+0x96>
    1a2c:	90 93 14 0f 	sts	0x0F14, r25	; 0x800f14 <__flp+0x1>
    1a30:	80 93 13 0f 	sts	0x0F13, r24	; 0x800f13 <__flp>
    1a34:	fe 01       	movw	r30, r28
    1a36:	32 96       	adiw	r30, 0x02	; 2
    1a38:	44 c0       	rjmp	.+136    	; 0x1ac2 <malloc+0x124>
    1a3a:	fe 01       	movw	r30, r28
    1a3c:	e2 0f       	add	r30, r18
    1a3e:	f3 1f       	adc	r31, r19
    1a40:	81 93       	st	Z+, r24
    1a42:	91 93       	st	Z+, r25
    1a44:	22 50       	subi	r18, 0x02	; 2
    1a46:	31 09       	sbc	r19, r1
    1a48:	39 83       	std	Y+1, r19	; 0x01
    1a4a:	28 83       	st	Y, r18
    1a4c:	3a c0       	rjmp	.+116    	; 0x1ac2 <malloc+0x124>
    1a4e:	20 91 11 0f 	lds	r18, 0x0F11	; 0x800f11 <__brkval>
    1a52:	30 91 12 0f 	lds	r19, 0x0F12	; 0x800f12 <__brkval+0x1>
    1a56:	23 2b       	or	r18, r19
    1a58:	41 f4       	brne	.+16     	; 0x1a6a <malloc+0xcc>
    1a5a:	20 91 02 02 	lds	r18, 0x0202	; 0x800202 <__malloc_heap_start>
    1a5e:	30 91 03 02 	lds	r19, 0x0203	; 0x800203 <__malloc_heap_start+0x1>
    1a62:	30 93 12 0f 	sts	0x0F12, r19	; 0x800f12 <__brkval+0x1>
    1a66:	20 93 11 0f 	sts	0x0F11, r18	; 0x800f11 <__brkval>
    1a6a:	20 91 00 02 	lds	r18, 0x0200	; 0x800200 <__data_start>
    1a6e:	30 91 01 02 	lds	r19, 0x0201	; 0x800201 <__data_start+0x1>
    1a72:	21 15       	cp	r18, r1
    1a74:	31 05       	cpc	r19, r1
    1a76:	41 f4       	brne	.+16     	; 0x1a88 <malloc+0xea>
    1a78:	2d b7       	in	r18, 0x3d	; 61
    1a7a:	3e b7       	in	r19, 0x3e	; 62
    1a7c:	40 91 04 02 	lds	r20, 0x0204	; 0x800204 <__malloc_margin>
    1a80:	50 91 05 02 	lds	r21, 0x0205	; 0x800205 <__malloc_margin+0x1>
    1a84:	24 1b       	sub	r18, r20
    1a86:	35 0b       	sbc	r19, r21
    1a88:	e0 91 11 0f 	lds	r30, 0x0F11	; 0x800f11 <__brkval>
    1a8c:	f0 91 12 0f 	lds	r31, 0x0F12	; 0x800f12 <__brkval+0x1>
    1a90:	e2 17       	cp	r30, r18
    1a92:	f3 07       	cpc	r31, r19
    1a94:	a0 f4       	brcc	.+40     	; 0x1abe <malloc+0x120>
    1a96:	2e 1b       	sub	r18, r30
    1a98:	3f 0b       	sbc	r19, r31
    1a9a:	28 17       	cp	r18, r24
    1a9c:	39 07       	cpc	r19, r25
    1a9e:	78 f0       	brcs	.+30     	; 0x1abe <malloc+0x120>
    1aa0:	ac 01       	movw	r20, r24
    1aa2:	4e 5f       	subi	r20, 0xFE	; 254
    1aa4:	5f 4f       	sbci	r21, 0xFF	; 255
    1aa6:	24 17       	cp	r18, r20
    1aa8:	35 07       	cpc	r19, r21
    1aaa:	48 f0       	brcs	.+18     	; 0x1abe <malloc+0x120>
    1aac:	4e 0f       	add	r20, r30
    1aae:	5f 1f       	adc	r21, r31
    1ab0:	50 93 12 0f 	sts	0x0F12, r21	; 0x800f12 <__brkval+0x1>
    1ab4:	40 93 11 0f 	sts	0x0F11, r20	; 0x800f11 <__brkval>
    1ab8:	81 93       	st	Z+, r24
    1aba:	91 93       	st	Z+, r25
    1abc:	02 c0       	rjmp	.+4      	; 0x1ac2 <malloc+0x124>
    1abe:	e0 e0       	ldi	r30, 0x00	; 0
    1ac0:	f0 e0       	ldi	r31, 0x00	; 0
    1ac2:	cf 01       	movw	r24, r30
    1ac4:	df 91       	pop	r29
    1ac6:	cf 91       	pop	r28
    1ac8:	1f 91       	pop	r17
    1aca:	0f 91       	pop	r16
    1acc:	08 95       	ret

00001ace <free>:
    1ace:	cf 93       	push	r28
    1ad0:	df 93       	push	r29
    1ad2:	00 97       	sbiw	r24, 0x00	; 0
    1ad4:	09 f4       	brne	.+2      	; 0x1ad8 <free+0xa>
    1ad6:	81 c0       	rjmp	.+258    	; 0x1bda <free+0x10c>
    1ad8:	fc 01       	movw	r30, r24
    1ada:	32 97       	sbiw	r30, 0x02	; 2
    1adc:	13 82       	std	Z+3, r1	; 0x03
    1ade:	12 82       	std	Z+2, r1	; 0x02
    1ae0:	a0 91 13 0f 	lds	r26, 0x0F13	; 0x800f13 <__flp>
    1ae4:	b0 91 14 0f 	lds	r27, 0x0F14	; 0x800f14 <__flp+0x1>
    1ae8:	10 97       	sbiw	r26, 0x00	; 0
    1aea:	81 f4       	brne	.+32     	; 0x1b0c <free+0x3e>
    1aec:	20 81       	ld	r18, Z
    1aee:	31 81       	ldd	r19, Z+1	; 0x01
    1af0:	82 0f       	add	r24, r18
    1af2:	93 1f       	adc	r25, r19
    1af4:	20 91 11 0f 	lds	r18, 0x0F11	; 0x800f11 <__brkval>
    1af8:	30 91 12 0f 	lds	r19, 0x0F12	; 0x800f12 <__brkval+0x1>
    1afc:	28 17       	cp	r18, r24
    1afe:	39 07       	cpc	r19, r25
    1b00:	51 f5       	brne	.+84     	; 0x1b56 <free+0x88>
    1b02:	f0 93 12 0f 	sts	0x0F12, r31	; 0x800f12 <__brkval+0x1>
    1b06:	e0 93 11 0f 	sts	0x0F11, r30	; 0x800f11 <__brkval>
    1b0a:	67 c0       	rjmp	.+206    	; 0x1bda <free+0x10c>
    1b0c:	ed 01       	movw	r28, r26
    1b0e:	20 e0       	ldi	r18, 0x00	; 0
    1b10:	30 e0       	ldi	r19, 0x00	; 0
    1b12:	ce 17       	cp	r28, r30
    1b14:	df 07       	cpc	r29, r31
    1b16:	40 f4       	brcc	.+16     	; 0x1b28 <free+0x5a>
    1b18:	4a 81       	ldd	r20, Y+2	; 0x02
    1b1a:	5b 81       	ldd	r21, Y+3	; 0x03
    1b1c:	9e 01       	movw	r18, r28
    1b1e:	41 15       	cp	r20, r1
    1b20:	51 05       	cpc	r21, r1
    1b22:	f1 f0       	breq	.+60     	; 0x1b60 <free+0x92>
    1b24:	ea 01       	movw	r28, r20
    1b26:	f5 cf       	rjmp	.-22     	; 0x1b12 <free+0x44>
    1b28:	d3 83       	std	Z+3, r29	; 0x03
    1b2a:	c2 83       	std	Z+2, r28	; 0x02
    1b2c:	40 81       	ld	r20, Z
    1b2e:	51 81       	ldd	r21, Z+1	; 0x01
    1b30:	84 0f       	add	r24, r20
    1b32:	95 1f       	adc	r25, r21
    1b34:	c8 17       	cp	r28, r24
    1b36:	d9 07       	cpc	r29, r25
    1b38:	59 f4       	brne	.+22     	; 0x1b50 <free+0x82>
    1b3a:	88 81       	ld	r24, Y
    1b3c:	99 81       	ldd	r25, Y+1	; 0x01
    1b3e:	84 0f       	add	r24, r20
    1b40:	95 1f       	adc	r25, r21
    1b42:	02 96       	adiw	r24, 0x02	; 2
    1b44:	91 83       	std	Z+1, r25	; 0x01
    1b46:	80 83       	st	Z, r24
    1b48:	8a 81       	ldd	r24, Y+2	; 0x02
    1b4a:	9b 81       	ldd	r25, Y+3	; 0x03
    1b4c:	93 83       	std	Z+3, r25	; 0x03
    1b4e:	82 83       	std	Z+2, r24	; 0x02
    1b50:	21 15       	cp	r18, r1
    1b52:	31 05       	cpc	r19, r1
    1b54:	29 f4       	brne	.+10     	; 0x1b60 <free+0x92>
    1b56:	f0 93 14 0f 	sts	0x0F14, r31	; 0x800f14 <__flp+0x1>
    1b5a:	e0 93 13 0f 	sts	0x0F13, r30	; 0x800f13 <__flp>
    1b5e:	3d c0       	rjmp	.+122    	; 0x1bda <free+0x10c>
    1b60:	e9 01       	movw	r28, r18
    1b62:	fb 83       	std	Y+3, r31	; 0x03
    1b64:	ea 83       	std	Y+2, r30	; 0x02
    1b66:	49 91       	ld	r20, Y+
    1b68:	59 91       	ld	r21, Y+
    1b6a:	c4 0f       	add	r28, r20
    1b6c:	d5 1f       	adc	r29, r21
    1b6e:	ec 17       	cp	r30, r28
    1b70:	fd 07       	cpc	r31, r29
    1b72:	61 f4       	brne	.+24     	; 0x1b8c <free+0xbe>
    1b74:	80 81       	ld	r24, Z
    1b76:	91 81       	ldd	r25, Z+1	; 0x01
    1b78:	84 0f       	add	r24, r20
    1b7a:	95 1f       	adc	r25, r21
    1b7c:	02 96       	adiw	r24, 0x02	; 2
    1b7e:	e9 01       	movw	r28, r18
    1b80:	99 83       	std	Y+1, r25	; 0x01
    1b82:	88 83       	st	Y, r24
    1b84:	82 81       	ldd	r24, Z+2	; 0x02
    1b86:	93 81       	ldd	r25, Z+3	; 0x03
    1b88:	9b 83       	std	Y+3, r25	; 0x03
    1b8a:	8a 83       	std	Y+2, r24	; 0x02
    1b8c:	e0 e0       	ldi	r30, 0x00	; 0
    1b8e:	f0 e0       	ldi	r31, 0x00	; 0
    1b90:	12 96       	adiw	r26, 0x02	; 2
    1b92:	8d 91       	ld	r24, X+
    1b94:	9c 91       	ld	r25, X
    1b96:	13 97       	sbiw	r26, 0x03	; 3
    1b98:	00 97       	sbiw	r24, 0x00	; 0
    1b9a:	19 f0       	breq	.+6      	; 0x1ba2 <free+0xd4>
    1b9c:	fd 01       	movw	r30, r26
    1b9e:	dc 01       	movw	r26, r24
    1ba0:	f7 cf       	rjmp	.-18     	; 0x1b90 <free+0xc2>
    1ba2:	8d 91       	ld	r24, X+
    1ba4:	9c 91       	ld	r25, X
    1ba6:	11 97       	sbiw	r26, 0x01	; 1
    1ba8:	9d 01       	movw	r18, r26
    1baa:	2e 5f       	subi	r18, 0xFE	; 254
    1bac:	3f 4f       	sbci	r19, 0xFF	; 255
    1bae:	82 0f       	add	r24, r18
    1bb0:	93 1f       	adc	r25, r19
    1bb2:	20 91 11 0f 	lds	r18, 0x0F11	; 0x800f11 <__brkval>
    1bb6:	30 91 12 0f 	lds	r19, 0x0F12	; 0x800f12 <__brkval+0x1>
    1bba:	28 17       	cp	r18, r24
    1bbc:	39 07       	cpc	r19, r25
    1bbe:	69 f4       	brne	.+26     	; 0x1bda <free+0x10c>
    1bc0:	30 97       	sbiw	r30, 0x00	; 0
    1bc2:	29 f4       	brne	.+10     	; 0x1bce <free+0x100>
    1bc4:	10 92 14 0f 	sts	0x0F14, r1	; 0x800f14 <__flp+0x1>
    1bc8:	10 92 13 0f 	sts	0x0F13, r1	; 0x800f13 <__flp>
    1bcc:	02 c0       	rjmp	.+4      	; 0x1bd2 <free+0x104>
    1bce:	13 82       	std	Z+3, r1	; 0x03
    1bd0:	12 82       	std	Z+2, r1	; 0x02
    1bd2:	b0 93 12 0f 	sts	0x0F12, r27	; 0x800f12 <__brkval+0x1>
    1bd6:	a0 93 11 0f 	sts	0x0F11, r26	; 0x800f11 <__brkval>
    1bda:	df 91       	pop	r29
    1bdc:	cf 91       	pop	r28
    1bde:	08 95       	ret

00001be0 <strcat>:
    1be0:	fb 01       	movw	r30, r22
    1be2:	dc 01       	movw	r26, r24
    1be4:	0d 90       	ld	r0, X+
    1be6:	00 20       	and	r0, r0
    1be8:	e9 f7       	brne	.-6      	; 0x1be4 <strcat+0x4>
    1bea:	11 97       	sbiw	r26, 0x01	; 1
    1bec:	01 90       	ld	r0, Z+
    1bee:	0d 92       	st	X+, r0
    1bf0:	00 20       	and	r0, r0
    1bf2:	e1 f7       	brne	.-8      	; 0x1bec <strcat+0xc>
    1bf4:	08 95       	ret

00001bf6 <strcpy>:
    1bf6:	fb 01       	movw	r30, r22
    1bf8:	dc 01       	movw	r26, r24
    1bfa:	01 90       	ld	r0, Z+
    1bfc:	0d 92       	st	X+, r0
    1bfe:	00 20       	and	r0, r0
    1c00:	e1 f7       	brne	.-8      	; 0x1bfa <strcpy+0x4>
    1c02:	08 95       	ret

00001c04 <sprintf>:
    1c04:	0f 93       	push	r16
    1c06:	1f 93       	push	r17
    1c08:	cf 93       	push	r28
    1c0a:	df 93       	push	r29
    1c0c:	cd b7       	in	r28, 0x3d	; 61
    1c0e:	de b7       	in	r29, 0x3e	; 62
    1c10:	2e 97       	sbiw	r28, 0x0e	; 14
    1c12:	0f b6       	in	r0, 0x3f	; 63
    1c14:	f8 94       	cli
    1c16:	de bf       	out	0x3e, r29	; 62
    1c18:	0f be       	out	0x3f, r0	; 63
    1c1a:	cd bf       	out	0x3d, r28	; 61
    1c1c:	0e 89       	ldd	r16, Y+22	; 0x16
    1c1e:	1f 89       	ldd	r17, Y+23	; 0x17
    1c20:	86 e0       	ldi	r24, 0x06	; 6
    1c22:	8c 83       	std	Y+4, r24	; 0x04
    1c24:	1a 83       	std	Y+2, r17	; 0x02
    1c26:	09 83       	std	Y+1, r16	; 0x01
    1c28:	8f ef       	ldi	r24, 0xFF	; 255
    1c2a:	9f e7       	ldi	r25, 0x7F	; 127
    1c2c:	9e 83       	std	Y+6, r25	; 0x06
    1c2e:	8d 83       	std	Y+5, r24	; 0x05
    1c30:	ae 01       	movw	r20, r28
    1c32:	46 5e       	subi	r20, 0xE6	; 230
    1c34:	5f 4f       	sbci	r21, 0xFF	; 255
    1c36:	68 8d       	ldd	r22, Y+24	; 0x18
    1c38:	79 8d       	ldd	r23, Y+25	; 0x19
    1c3a:	ce 01       	movw	r24, r28
    1c3c:	01 96       	adiw	r24, 0x01	; 1
    1c3e:	10 d0       	rcall	.+32     	; 0x1c60 <vfprintf>
    1c40:	ef 81       	ldd	r30, Y+7	; 0x07
    1c42:	f8 85       	ldd	r31, Y+8	; 0x08
    1c44:	e0 0f       	add	r30, r16
    1c46:	f1 1f       	adc	r31, r17
    1c48:	10 82       	st	Z, r1
    1c4a:	2e 96       	adiw	r28, 0x0e	; 14
    1c4c:	0f b6       	in	r0, 0x3f	; 63
    1c4e:	f8 94       	cli
    1c50:	de bf       	out	0x3e, r29	; 62
    1c52:	0f be       	out	0x3f, r0	; 63
    1c54:	cd bf       	out	0x3d, r28	; 61
    1c56:	df 91       	pop	r29
    1c58:	cf 91       	pop	r28
    1c5a:	1f 91       	pop	r17
    1c5c:	0f 91       	pop	r16
    1c5e:	08 95       	ret

00001c60 <vfprintf>:
    1c60:	2f 92       	push	r2
    1c62:	3f 92       	push	r3
    1c64:	4f 92       	push	r4
    1c66:	5f 92       	push	r5
    1c68:	6f 92       	push	r6
    1c6a:	7f 92       	push	r7
    1c6c:	8f 92       	push	r8
    1c6e:	9f 92       	push	r9
    1c70:	af 92       	push	r10
    1c72:	bf 92       	push	r11
    1c74:	cf 92       	push	r12
    1c76:	df 92       	push	r13
    1c78:	ef 92       	push	r14
    1c7a:	ff 92       	push	r15
    1c7c:	0f 93       	push	r16
    1c7e:	1f 93       	push	r17
    1c80:	cf 93       	push	r28
    1c82:	df 93       	push	r29
    1c84:	cd b7       	in	r28, 0x3d	; 61
    1c86:	de b7       	in	r29, 0x3e	; 62
    1c88:	2b 97       	sbiw	r28, 0x0b	; 11
    1c8a:	0f b6       	in	r0, 0x3f	; 63
    1c8c:	f8 94       	cli
    1c8e:	de bf       	out	0x3e, r29	; 62
    1c90:	0f be       	out	0x3f, r0	; 63
    1c92:	cd bf       	out	0x3d, r28	; 61
    1c94:	6c 01       	movw	r12, r24
    1c96:	7b 01       	movw	r14, r22
    1c98:	8a 01       	movw	r16, r20
    1c9a:	fc 01       	movw	r30, r24
    1c9c:	17 82       	std	Z+7, r1	; 0x07
    1c9e:	16 82       	std	Z+6, r1	; 0x06
    1ca0:	83 81       	ldd	r24, Z+3	; 0x03
    1ca2:	81 ff       	sbrs	r24, 1
    1ca4:	bf c1       	rjmp	.+894    	; 0x2024 <vfprintf+0x3c4>
    1ca6:	ce 01       	movw	r24, r28
    1ca8:	01 96       	adiw	r24, 0x01	; 1
    1caa:	3c 01       	movw	r6, r24
    1cac:	f6 01       	movw	r30, r12
    1cae:	93 81       	ldd	r25, Z+3	; 0x03
    1cb0:	f7 01       	movw	r30, r14
    1cb2:	93 fd       	sbrc	r25, 3
    1cb4:	85 91       	lpm	r24, Z+
    1cb6:	93 ff       	sbrs	r25, 3
    1cb8:	81 91       	ld	r24, Z+
    1cba:	7f 01       	movw	r14, r30
    1cbc:	88 23       	and	r24, r24
    1cbe:	09 f4       	brne	.+2      	; 0x1cc2 <vfprintf+0x62>
    1cc0:	ad c1       	rjmp	.+858    	; 0x201c <vfprintf+0x3bc>
    1cc2:	85 32       	cpi	r24, 0x25	; 37
    1cc4:	39 f4       	brne	.+14     	; 0x1cd4 <vfprintf+0x74>
    1cc6:	93 fd       	sbrc	r25, 3
    1cc8:	85 91       	lpm	r24, Z+
    1cca:	93 ff       	sbrs	r25, 3
    1ccc:	81 91       	ld	r24, Z+
    1cce:	7f 01       	movw	r14, r30
    1cd0:	85 32       	cpi	r24, 0x25	; 37
    1cd2:	21 f4       	brne	.+8      	; 0x1cdc <vfprintf+0x7c>
    1cd4:	b6 01       	movw	r22, r12
    1cd6:	90 e0       	ldi	r25, 0x00	; 0
    1cd8:	d6 d1       	rcall	.+940    	; 0x2086 <fputc>
    1cda:	e8 cf       	rjmp	.-48     	; 0x1cac <vfprintf+0x4c>
    1cdc:	91 2c       	mov	r9, r1
    1cde:	21 2c       	mov	r2, r1
    1ce0:	31 2c       	mov	r3, r1
    1ce2:	ff e1       	ldi	r31, 0x1F	; 31
    1ce4:	f3 15       	cp	r31, r3
    1ce6:	d8 f0       	brcs	.+54     	; 0x1d1e <vfprintf+0xbe>
    1ce8:	8b 32       	cpi	r24, 0x2B	; 43
    1cea:	79 f0       	breq	.+30     	; 0x1d0a <vfprintf+0xaa>
    1cec:	38 f4       	brcc	.+14     	; 0x1cfc <vfprintf+0x9c>
    1cee:	80 32       	cpi	r24, 0x20	; 32
    1cf0:	79 f0       	breq	.+30     	; 0x1d10 <vfprintf+0xb0>
    1cf2:	83 32       	cpi	r24, 0x23	; 35
    1cf4:	a1 f4       	brne	.+40     	; 0x1d1e <vfprintf+0xbe>
    1cf6:	23 2d       	mov	r18, r3
    1cf8:	20 61       	ori	r18, 0x10	; 16
    1cfa:	1d c0       	rjmp	.+58     	; 0x1d36 <vfprintf+0xd6>
    1cfc:	8d 32       	cpi	r24, 0x2D	; 45
    1cfe:	61 f0       	breq	.+24     	; 0x1d18 <vfprintf+0xb8>
    1d00:	80 33       	cpi	r24, 0x30	; 48
    1d02:	69 f4       	brne	.+26     	; 0x1d1e <vfprintf+0xbe>
    1d04:	23 2d       	mov	r18, r3
    1d06:	21 60       	ori	r18, 0x01	; 1
    1d08:	16 c0       	rjmp	.+44     	; 0x1d36 <vfprintf+0xd6>
    1d0a:	83 2d       	mov	r24, r3
    1d0c:	82 60       	ori	r24, 0x02	; 2
    1d0e:	38 2e       	mov	r3, r24
    1d10:	e3 2d       	mov	r30, r3
    1d12:	e4 60       	ori	r30, 0x04	; 4
    1d14:	3e 2e       	mov	r3, r30
    1d16:	2a c0       	rjmp	.+84     	; 0x1d6c <vfprintf+0x10c>
    1d18:	f3 2d       	mov	r31, r3
    1d1a:	f8 60       	ori	r31, 0x08	; 8
    1d1c:	1d c0       	rjmp	.+58     	; 0x1d58 <vfprintf+0xf8>
    1d1e:	37 fc       	sbrc	r3, 7
    1d20:	2d c0       	rjmp	.+90     	; 0x1d7c <vfprintf+0x11c>
    1d22:	20 ed       	ldi	r18, 0xD0	; 208
    1d24:	28 0f       	add	r18, r24
    1d26:	2a 30       	cpi	r18, 0x0A	; 10
    1d28:	40 f0       	brcs	.+16     	; 0x1d3a <vfprintf+0xda>
    1d2a:	8e 32       	cpi	r24, 0x2E	; 46
    1d2c:	b9 f4       	brne	.+46     	; 0x1d5c <vfprintf+0xfc>
    1d2e:	36 fc       	sbrc	r3, 6
    1d30:	75 c1       	rjmp	.+746    	; 0x201c <vfprintf+0x3bc>
    1d32:	23 2d       	mov	r18, r3
    1d34:	20 64       	ori	r18, 0x40	; 64
    1d36:	32 2e       	mov	r3, r18
    1d38:	19 c0       	rjmp	.+50     	; 0x1d6c <vfprintf+0x10c>
    1d3a:	36 fe       	sbrs	r3, 6
    1d3c:	06 c0       	rjmp	.+12     	; 0x1d4a <vfprintf+0xea>
    1d3e:	8a e0       	ldi	r24, 0x0A	; 10
    1d40:	98 9e       	mul	r9, r24
    1d42:	20 0d       	add	r18, r0
    1d44:	11 24       	eor	r1, r1
    1d46:	92 2e       	mov	r9, r18
    1d48:	11 c0       	rjmp	.+34     	; 0x1d6c <vfprintf+0x10c>
    1d4a:	ea e0       	ldi	r30, 0x0A	; 10
    1d4c:	2e 9e       	mul	r2, r30
    1d4e:	20 0d       	add	r18, r0
    1d50:	11 24       	eor	r1, r1
    1d52:	22 2e       	mov	r2, r18
    1d54:	f3 2d       	mov	r31, r3
    1d56:	f0 62       	ori	r31, 0x20	; 32
    1d58:	3f 2e       	mov	r3, r31
    1d5a:	08 c0       	rjmp	.+16     	; 0x1d6c <vfprintf+0x10c>
    1d5c:	8c 36       	cpi	r24, 0x6C	; 108
    1d5e:	21 f4       	brne	.+8      	; 0x1d68 <vfprintf+0x108>
    1d60:	83 2d       	mov	r24, r3
    1d62:	80 68       	ori	r24, 0x80	; 128
    1d64:	38 2e       	mov	r3, r24
    1d66:	02 c0       	rjmp	.+4      	; 0x1d6c <vfprintf+0x10c>
    1d68:	88 36       	cpi	r24, 0x68	; 104
    1d6a:	41 f4       	brne	.+16     	; 0x1d7c <vfprintf+0x11c>
    1d6c:	f7 01       	movw	r30, r14
    1d6e:	93 fd       	sbrc	r25, 3
    1d70:	85 91       	lpm	r24, Z+
    1d72:	93 ff       	sbrs	r25, 3
    1d74:	81 91       	ld	r24, Z+
    1d76:	7f 01       	movw	r14, r30
    1d78:	81 11       	cpse	r24, r1
    1d7a:	b3 cf       	rjmp	.-154    	; 0x1ce2 <vfprintf+0x82>
    1d7c:	98 2f       	mov	r25, r24
    1d7e:	9f 7d       	andi	r25, 0xDF	; 223
    1d80:	95 54       	subi	r25, 0x45	; 69
    1d82:	93 30       	cpi	r25, 0x03	; 3
    1d84:	28 f4       	brcc	.+10     	; 0x1d90 <vfprintf+0x130>
    1d86:	0c 5f       	subi	r16, 0xFC	; 252
    1d88:	1f 4f       	sbci	r17, 0xFF	; 255
    1d8a:	9f e3       	ldi	r25, 0x3F	; 63
    1d8c:	99 83       	std	Y+1, r25	; 0x01
    1d8e:	0d c0       	rjmp	.+26     	; 0x1daa <vfprintf+0x14a>
    1d90:	83 36       	cpi	r24, 0x63	; 99
    1d92:	31 f0       	breq	.+12     	; 0x1da0 <vfprintf+0x140>
    1d94:	83 37       	cpi	r24, 0x73	; 115
    1d96:	71 f0       	breq	.+28     	; 0x1db4 <vfprintf+0x154>
    1d98:	83 35       	cpi	r24, 0x53	; 83
    1d9a:	09 f0       	breq	.+2      	; 0x1d9e <vfprintf+0x13e>
    1d9c:	55 c0       	rjmp	.+170    	; 0x1e48 <vfprintf+0x1e8>
    1d9e:	20 c0       	rjmp	.+64     	; 0x1de0 <vfprintf+0x180>
    1da0:	f8 01       	movw	r30, r16
    1da2:	80 81       	ld	r24, Z
    1da4:	89 83       	std	Y+1, r24	; 0x01
    1da6:	0e 5f       	subi	r16, 0xFE	; 254
    1da8:	1f 4f       	sbci	r17, 0xFF	; 255
    1daa:	88 24       	eor	r8, r8
    1dac:	83 94       	inc	r8
    1dae:	91 2c       	mov	r9, r1
    1db0:	53 01       	movw	r10, r6
    1db2:	12 c0       	rjmp	.+36     	; 0x1dd8 <vfprintf+0x178>
    1db4:	28 01       	movw	r4, r16
    1db6:	f2 e0       	ldi	r31, 0x02	; 2
    1db8:	4f 0e       	add	r4, r31
    1dba:	51 1c       	adc	r5, r1
    1dbc:	f8 01       	movw	r30, r16
    1dbe:	a0 80       	ld	r10, Z
    1dc0:	b1 80       	ldd	r11, Z+1	; 0x01
    1dc2:	36 fe       	sbrs	r3, 6
    1dc4:	03 c0       	rjmp	.+6      	; 0x1dcc <vfprintf+0x16c>
    1dc6:	69 2d       	mov	r22, r9
    1dc8:	70 e0       	ldi	r23, 0x00	; 0
    1dca:	02 c0       	rjmp	.+4      	; 0x1dd0 <vfprintf+0x170>
    1dcc:	6f ef       	ldi	r22, 0xFF	; 255
    1dce:	7f ef       	ldi	r23, 0xFF	; 255
    1dd0:	c5 01       	movw	r24, r10
    1dd2:	4e d1       	rcall	.+668    	; 0x2070 <strnlen>
    1dd4:	4c 01       	movw	r8, r24
    1dd6:	82 01       	movw	r16, r4
    1dd8:	f3 2d       	mov	r31, r3
    1dda:	ff 77       	andi	r31, 0x7F	; 127
    1ddc:	3f 2e       	mov	r3, r31
    1dde:	15 c0       	rjmp	.+42     	; 0x1e0a <vfprintf+0x1aa>
    1de0:	28 01       	movw	r4, r16
    1de2:	22 e0       	ldi	r18, 0x02	; 2
    1de4:	42 0e       	add	r4, r18
    1de6:	51 1c       	adc	r5, r1
    1de8:	f8 01       	movw	r30, r16
    1dea:	a0 80       	ld	r10, Z
    1dec:	b1 80       	ldd	r11, Z+1	; 0x01
    1dee:	36 fe       	sbrs	r3, 6
    1df0:	03 c0       	rjmp	.+6      	; 0x1df8 <vfprintf+0x198>
    1df2:	69 2d       	mov	r22, r9
    1df4:	70 e0       	ldi	r23, 0x00	; 0
    1df6:	02 c0       	rjmp	.+4      	; 0x1dfc <vfprintf+0x19c>
    1df8:	6f ef       	ldi	r22, 0xFF	; 255
    1dfa:	7f ef       	ldi	r23, 0xFF	; 255
    1dfc:	c5 01       	movw	r24, r10
    1dfe:	2d d1       	rcall	.+602    	; 0x205a <strnlen_P>
    1e00:	4c 01       	movw	r8, r24
    1e02:	f3 2d       	mov	r31, r3
    1e04:	f0 68       	ori	r31, 0x80	; 128
    1e06:	3f 2e       	mov	r3, r31
    1e08:	82 01       	movw	r16, r4
    1e0a:	33 fc       	sbrc	r3, 3
    1e0c:	19 c0       	rjmp	.+50     	; 0x1e40 <vfprintf+0x1e0>
    1e0e:	82 2d       	mov	r24, r2
    1e10:	90 e0       	ldi	r25, 0x00	; 0
    1e12:	88 16       	cp	r8, r24
    1e14:	99 06       	cpc	r9, r25
    1e16:	a0 f4       	brcc	.+40     	; 0x1e40 <vfprintf+0x1e0>
    1e18:	b6 01       	movw	r22, r12
    1e1a:	80 e2       	ldi	r24, 0x20	; 32
    1e1c:	90 e0       	ldi	r25, 0x00	; 0
    1e1e:	33 d1       	rcall	.+614    	; 0x2086 <fputc>
    1e20:	2a 94       	dec	r2
    1e22:	f5 cf       	rjmp	.-22     	; 0x1e0e <vfprintf+0x1ae>
    1e24:	f5 01       	movw	r30, r10
    1e26:	37 fc       	sbrc	r3, 7
    1e28:	85 91       	lpm	r24, Z+
    1e2a:	37 fe       	sbrs	r3, 7
    1e2c:	81 91       	ld	r24, Z+
    1e2e:	5f 01       	movw	r10, r30
    1e30:	b6 01       	movw	r22, r12
    1e32:	90 e0       	ldi	r25, 0x00	; 0
    1e34:	28 d1       	rcall	.+592    	; 0x2086 <fputc>
    1e36:	21 10       	cpse	r2, r1
    1e38:	2a 94       	dec	r2
    1e3a:	21 e0       	ldi	r18, 0x01	; 1
    1e3c:	82 1a       	sub	r8, r18
    1e3e:	91 08       	sbc	r9, r1
    1e40:	81 14       	cp	r8, r1
    1e42:	91 04       	cpc	r9, r1
    1e44:	79 f7       	brne	.-34     	; 0x1e24 <vfprintf+0x1c4>
    1e46:	e1 c0       	rjmp	.+450    	; 0x200a <vfprintf+0x3aa>
    1e48:	84 36       	cpi	r24, 0x64	; 100
    1e4a:	11 f0       	breq	.+4      	; 0x1e50 <vfprintf+0x1f0>
    1e4c:	89 36       	cpi	r24, 0x69	; 105
    1e4e:	39 f5       	brne	.+78     	; 0x1e9e <vfprintf+0x23e>
    1e50:	f8 01       	movw	r30, r16
    1e52:	37 fe       	sbrs	r3, 7
    1e54:	07 c0       	rjmp	.+14     	; 0x1e64 <vfprintf+0x204>
    1e56:	60 81       	ld	r22, Z
    1e58:	71 81       	ldd	r23, Z+1	; 0x01
    1e5a:	82 81       	ldd	r24, Z+2	; 0x02
    1e5c:	93 81       	ldd	r25, Z+3	; 0x03
    1e5e:	0c 5f       	subi	r16, 0xFC	; 252
    1e60:	1f 4f       	sbci	r17, 0xFF	; 255
    1e62:	08 c0       	rjmp	.+16     	; 0x1e74 <vfprintf+0x214>
    1e64:	60 81       	ld	r22, Z
    1e66:	71 81       	ldd	r23, Z+1	; 0x01
    1e68:	07 2e       	mov	r0, r23
    1e6a:	00 0c       	add	r0, r0
    1e6c:	88 0b       	sbc	r24, r24
    1e6e:	99 0b       	sbc	r25, r25
    1e70:	0e 5f       	subi	r16, 0xFE	; 254
    1e72:	1f 4f       	sbci	r17, 0xFF	; 255
    1e74:	f3 2d       	mov	r31, r3
    1e76:	ff 76       	andi	r31, 0x6F	; 111
    1e78:	3f 2e       	mov	r3, r31
    1e7a:	97 ff       	sbrs	r25, 7
    1e7c:	09 c0       	rjmp	.+18     	; 0x1e90 <vfprintf+0x230>
    1e7e:	90 95       	com	r25
    1e80:	80 95       	com	r24
    1e82:	70 95       	com	r23
    1e84:	61 95       	neg	r22
    1e86:	7f 4f       	sbci	r23, 0xFF	; 255
    1e88:	8f 4f       	sbci	r24, 0xFF	; 255
    1e8a:	9f 4f       	sbci	r25, 0xFF	; 255
    1e8c:	f0 68       	ori	r31, 0x80	; 128
    1e8e:	3f 2e       	mov	r3, r31
    1e90:	2a e0       	ldi	r18, 0x0A	; 10
    1e92:	30 e0       	ldi	r19, 0x00	; 0
    1e94:	a3 01       	movw	r20, r6
    1e96:	33 d1       	rcall	.+614    	; 0x20fe <__ultoa_invert>
    1e98:	88 2e       	mov	r8, r24
    1e9a:	86 18       	sub	r8, r6
    1e9c:	44 c0       	rjmp	.+136    	; 0x1f26 <vfprintf+0x2c6>
    1e9e:	85 37       	cpi	r24, 0x75	; 117
    1ea0:	31 f4       	brne	.+12     	; 0x1eae <vfprintf+0x24e>
    1ea2:	23 2d       	mov	r18, r3
    1ea4:	2f 7e       	andi	r18, 0xEF	; 239
    1ea6:	b2 2e       	mov	r11, r18
    1ea8:	2a e0       	ldi	r18, 0x0A	; 10
    1eaa:	30 e0       	ldi	r19, 0x00	; 0
    1eac:	25 c0       	rjmp	.+74     	; 0x1ef8 <vfprintf+0x298>
    1eae:	93 2d       	mov	r25, r3
    1eb0:	99 7f       	andi	r25, 0xF9	; 249
    1eb2:	b9 2e       	mov	r11, r25
    1eb4:	8f 36       	cpi	r24, 0x6F	; 111
    1eb6:	c1 f0       	breq	.+48     	; 0x1ee8 <vfprintf+0x288>
    1eb8:	18 f4       	brcc	.+6      	; 0x1ec0 <vfprintf+0x260>
    1eba:	88 35       	cpi	r24, 0x58	; 88
    1ebc:	79 f0       	breq	.+30     	; 0x1edc <vfprintf+0x27c>
    1ebe:	ae c0       	rjmp	.+348    	; 0x201c <vfprintf+0x3bc>
    1ec0:	80 37       	cpi	r24, 0x70	; 112
    1ec2:	19 f0       	breq	.+6      	; 0x1eca <vfprintf+0x26a>
    1ec4:	88 37       	cpi	r24, 0x78	; 120
    1ec6:	21 f0       	breq	.+8      	; 0x1ed0 <vfprintf+0x270>
    1ec8:	a9 c0       	rjmp	.+338    	; 0x201c <vfprintf+0x3bc>
    1eca:	e9 2f       	mov	r30, r25
    1ecc:	e0 61       	ori	r30, 0x10	; 16
    1ece:	be 2e       	mov	r11, r30
    1ed0:	b4 fe       	sbrs	r11, 4
    1ed2:	0d c0       	rjmp	.+26     	; 0x1eee <vfprintf+0x28e>
    1ed4:	fb 2d       	mov	r31, r11
    1ed6:	f4 60       	ori	r31, 0x04	; 4
    1ed8:	bf 2e       	mov	r11, r31
    1eda:	09 c0       	rjmp	.+18     	; 0x1eee <vfprintf+0x28e>
    1edc:	34 fe       	sbrs	r3, 4
    1ede:	0a c0       	rjmp	.+20     	; 0x1ef4 <vfprintf+0x294>
    1ee0:	29 2f       	mov	r18, r25
    1ee2:	26 60       	ori	r18, 0x06	; 6
    1ee4:	b2 2e       	mov	r11, r18
    1ee6:	06 c0       	rjmp	.+12     	; 0x1ef4 <vfprintf+0x294>
    1ee8:	28 e0       	ldi	r18, 0x08	; 8
    1eea:	30 e0       	ldi	r19, 0x00	; 0
    1eec:	05 c0       	rjmp	.+10     	; 0x1ef8 <vfprintf+0x298>
    1eee:	20 e1       	ldi	r18, 0x10	; 16
    1ef0:	30 e0       	ldi	r19, 0x00	; 0
    1ef2:	02 c0       	rjmp	.+4      	; 0x1ef8 <vfprintf+0x298>
    1ef4:	20 e1       	ldi	r18, 0x10	; 16
    1ef6:	32 e0       	ldi	r19, 0x02	; 2
    1ef8:	f8 01       	movw	r30, r16
    1efa:	b7 fe       	sbrs	r11, 7
    1efc:	07 c0       	rjmp	.+14     	; 0x1f0c <vfprintf+0x2ac>
    1efe:	60 81       	ld	r22, Z
    1f00:	71 81       	ldd	r23, Z+1	; 0x01
    1f02:	82 81       	ldd	r24, Z+2	; 0x02
    1f04:	93 81       	ldd	r25, Z+3	; 0x03
    1f06:	0c 5f       	subi	r16, 0xFC	; 252
    1f08:	1f 4f       	sbci	r17, 0xFF	; 255
    1f0a:	06 c0       	rjmp	.+12     	; 0x1f18 <vfprintf+0x2b8>
    1f0c:	60 81       	ld	r22, Z
    1f0e:	71 81       	ldd	r23, Z+1	; 0x01
    1f10:	80 e0       	ldi	r24, 0x00	; 0
    1f12:	90 e0       	ldi	r25, 0x00	; 0
    1f14:	0e 5f       	subi	r16, 0xFE	; 254
    1f16:	1f 4f       	sbci	r17, 0xFF	; 255
    1f18:	a3 01       	movw	r20, r6
    1f1a:	f1 d0       	rcall	.+482    	; 0x20fe <__ultoa_invert>
    1f1c:	88 2e       	mov	r8, r24
    1f1e:	86 18       	sub	r8, r6
    1f20:	fb 2d       	mov	r31, r11
    1f22:	ff 77       	andi	r31, 0x7F	; 127
    1f24:	3f 2e       	mov	r3, r31
    1f26:	36 fe       	sbrs	r3, 6
    1f28:	0d c0       	rjmp	.+26     	; 0x1f44 <vfprintf+0x2e4>
    1f2a:	23 2d       	mov	r18, r3
    1f2c:	2e 7f       	andi	r18, 0xFE	; 254
    1f2e:	a2 2e       	mov	r10, r18
    1f30:	89 14       	cp	r8, r9
    1f32:	58 f4       	brcc	.+22     	; 0x1f4a <vfprintf+0x2ea>
    1f34:	34 fe       	sbrs	r3, 4
    1f36:	0b c0       	rjmp	.+22     	; 0x1f4e <vfprintf+0x2ee>
    1f38:	32 fc       	sbrc	r3, 2
    1f3a:	09 c0       	rjmp	.+18     	; 0x1f4e <vfprintf+0x2ee>
    1f3c:	83 2d       	mov	r24, r3
    1f3e:	8e 7e       	andi	r24, 0xEE	; 238
    1f40:	a8 2e       	mov	r10, r24
    1f42:	05 c0       	rjmp	.+10     	; 0x1f4e <vfprintf+0x2ee>
    1f44:	b8 2c       	mov	r11, r8
    1f46:	a3 2c       	mov	r10, r3
    1f48:	03 c0       	rjmp	.+6      	; 0x1f50 <vfprintf+0x2f0>
    1f4a:	b8 2c       	mov	r11, r8
    1f4c:	01 c0       	rjmp	.+2      	; 0x1f50 <vfprintf+0x2f0>
    1f4e:	b9 2c       	mov	r11, r9
    1f50:	a4 fe       	sbrs	r10, 4
    1f52:	0f c0       	rjmp	.+30     	; 0x1f72 <vfprintf+0x312>
    1f54:	fe 01       	movw	r30, r28
    1f56:	e8 0d       	add	r30, r8
    1f58:	f1 1d       	adc	r31, r1
    1f5a:	80 81       	ld	r24, Z
    1f5c:	80 33       	cpi	r24, 0x30	; 48
    1f5e:	21 f4       	brne	.+8      	; 0x1f68 <vfprintf+0x308>
    1f60:	9a 2d       	mov	r25, r10
    1f62:	99 7e       	andi	r25, 0xE9	; 233
    1f64:	a9 2e       	mov	r10, r25
    1f66:	09 c0       	rjmp	.+18     	; 0x1f7a <vfprintf+0x31a>
    1f68:	a2 fe       	sbrs	r10, 2
    1f6a:	06 c0       	rjmp	.+12     	; 0x1f78 <vfprintf+0x318>
    1f6c:	b3 94       	inc	r11
    1f6e:	b3 94       	inc	r11
    1f70:	04 c0       	rjmp	.+8      	; 0x1f7a <vfprintf+0x31a>
    1f72:	8a 2d       	mov	r24, r10
    1f74:	86 78       	andi	r24, 0x86	; 134
    1f76:	09 f0       	breq	.+2      	; 0x1f7a <vfprintf+0x31a>
    1f78:	b3 94       	inc	r11
    1f7a:	a3 fc       	sbrc	r10, 3
    1f7c:	10 c0       	rjmp	.+32     	; 0x1f9e <vfprintf+0x33e>
    1f7e:	a0 fe       	sbrs	r10, 0
    1f80:	06 c0       	rjmp	.+12     	; 0x1f8e <vfprintf+0x32e>
    1f82:	b2 14       	cp	r11, r2
    1f84:	80 f4       	brcc	.+32     	; 0x1fa6 <vfprintf+0x346>
    1f86:	28 0c       	add	r2, r8
    1f88:	92 2c       	mov	r9, r2
    1f8a:	9b 18       	sub	r9, r11
    1f8c:	0d c0       	rjmp	.+26     	; 0x1fa8 <vfprintf+0x348>
    1f8e:	b2 14       	cp	r11, r2
    1f90:	58 f4       	brcc	.+22     	; 0x1fa8 <vfprintf+0x348>
    1f92:	b6 01       	movw	r22, r12
    1f94:	80 e2       	ldi	r24, 0x20	; 32
    1f96:	90 e0       	ldi	r25, 0x00	; 0
    1f98:	76 d0       	rcall	.+236    	; 0x2086 <fputc>
    1f9a:	b3 94       	inc	r11
    1f9c:	f8 cf       	rjmp	.-16     	; 0x1f8e <vfprintf+0x32e>
    1f9e:	b2 14       	cp	r11, r2
    1fa0:	18 f4       	brcc	.+6      	; 0x1fa8 <vfprintf+0x348>
    1fa2:	2b 18       	sub	r2, r11
    1fa4:	02 c0       	rjmp	.+4      	; 0x1faa <vfprintf+0x34a>
    1fa6:	98 2c       	mov	r9, r8
    1fa8:	21 2c       	mov	r2, r1
    1faa:	a4 fe       	sbrs	r10, 4
    1fac:	0f c0       	rjmp	.+30     	; 0x1fcc <vfprintf+0x36c>
    1fae:	b6 01       	movw	r22, r12
    1fb0:	80 e3       	ldi	r24, 0x30	; 48
    1fb2:	90 e0       	ldi	r25, 0x00	; 0
    1fb4:	68 d0       	rcall	.+208    	; 0x2086 <fputc>
    1fb6:	a2 fe       	sbrs	r10, 2
    1fb8:	16 c0       	rjmp	.+44     	; 0x1fe6 <vfprintf+0x386>
    1fba:	a1 fc       	sbrc	r10, 1
    1fbc:	03 c0       	rjmp	.+6      	; 0x1fc4 <vfprintf+0x364>
    1fbe:	88 e7       	ldi	r24, 0x78	; 120
    1fc0:	90 e0       	ldi	r25, 0x00	; 0
    1fc2:	02 c0       	rjmp	.+4      	; 0x1fc8 <vfprintf+0x368>
    1fc4:	88 e5       	ldi	r24, 0x58	; 88
    1fc6:	90 e0       	ldi	r25, 0x00	; 0
    1fc8:	b6 01       	movw	r22, r12
    1fca:	0c c0       	rjmp	.+24     	; 0x1fe4 <vfprintf+0x384>
    1fcc:	8a 2d       	mov	r24, r10
    1fce:	86 78       	andi	r24, 0x86	; 134
    1fd0:	51 f0       	breq	.+20     	; 0x1fe6 <vfprintf+0x386>
    1fd2:	a1 fe       	sbrs	r10, 1
    1fd4:	02 c0       	rjmp	.+4      	; 0x1fda <vfprintf+0x37a>
    1fd6:	8b e2       	ldi	r24, 0x2B	; 43
    1fd8:	01 c0       	rjmp	.+2      	; 0x1fdc <vfprintf+0x37c>
    1fda:	80 e2       	ldi	r24, 0x20	; 32
    1fdc:	a7 fc       	sbrc	r10, 7
    1fde:	8d e2       	ldi	r24, 0x2D	; 45
    1fe0:	b6 01       	movw	r22, r12
    1fe2:	90 e0       	ldi	r25, 0x00	; 0
    1fe4:	50 d0       	rcall	.+160    	; 0x2086 <fputc>
    1fe6:	89 14       	cp	r8, r9
    1fe8:	30 f4       	brcc	.+12     	; 0x1ff6 <vfprintf+0x396>
    1fea:	b6 01       	movw	r22, r12
    1fec:	80 e3       	ldi	r24, 0x30	; 48
    1fee:	90 e0       	ldi	r25, 0x00	; 0
    1ff0:	4a d0       	rcall	.+148    	; 0x2086 <fputc>
    1ff2:	9a 94       	dec	r9
    1ff4:	f8 cf       	rjmp	.-16     	; 0x1fe6 <vfprintf+0x386>
    1ff6:	8a 94       	dec	r8
    1ff8:	f3 01       	movw	r30, r6
    1ffa:	e8 0d       	add	r30, r8
    1ffc:	f1 1d       	adc	r31, r1
    1ffe:	80 81       	ld	r24, Z
    2000:	b6 01       	movw	r22, r12
    2002:	90 e0       	ldi	r25, 0x00	; 0
    2004:	40 d0       	rcall	.+128    	; 0x2086 <fputc>
    2006:	81 10       	cpse	r8, r1
    2008:	f6 cf       	rjmp	.-20     	; 0x1ff6 <vfprintf+0x396>
    200a:	22 20       	and	r2, r2
    200c:	09 f4       	brne	.+2      	; 0x2010 <vfprintf+0x3b0>
    200e:	4e ce       	rjmp	.-868    	; 0x1cac <vfprintf+0x4c>
    2010:	b6 01       	movw	r22, r12
    2012:	80 e2       	ldi	r24, 0x20	; 32
    2014:	90 e0       	ldi	r25, 0x00	; 0
    2016:	37 d0       	rcall	.+110    	; 0x2086 <fputc>
    2018:	2a 94       	dec	r2
    201a:	f7 cf       	rjmp	.-18     	; 0x200a <vfprintf+0x3aa>
    201c:	f6 01       	movw	r30, r12
    201e:	86 81       	ldd	r24, Z+6	; 0x06
    2020:	97 81       	ldd	r25, Z+7	; 0x07
    2022:	02 c0       	rjmp	.+4      	; 0x2028 <vfprintf+0x3c8>
    2024:	8f ef       	ldi	r24, 0xFF	; 255
    2026:	9f ef       	ldi	r25, 0xFF	; 255
    2028:	2b 96       	adiw	r28, 0x0b	; 11
    202a:	0f b6       	in	r0, 0x3f	; 63
    202c:	f8 94       	cli
    202e:	de bf       	out	0x3e, r29	; 62
    2030:	0f be       	out	0x3f, r0	; 63
    2032:	cd bf       	out	0x3d, r28	; 61
    2034:	df 91       	pop	r29
    2036:	cf 91       	pop	r28
    2038:	1f 91       	pop	r17
    203a:	0f 91       	pop	r16
    203c:	ff 90       	pop	r15
    203e:	ef 90       	pop	r14
    2040:	df 90       	pop	r13
    2042:	cf 90       	pop	r12
    2044:	bf 90       	pop	r11
    2046:	af 90       	pop	r10
    2048:	9f 90       	pop	r9
    204a:	8f 90       	pop	r8
    204c:	7f 90       	pop	r7
    204e:	6f 90       	pop	r6
    2050:	5f 90       	pop	r5
    2052:	4f 90       	pop	r4
    2054:	3f 90       	pop	r3
    2056:	2f 90       	pop	r2
    2058:	08 95       	ret

0000205a <strnlen_P>:
    205a:	fc 01       	movw	r30, r24
    205c:	05 90       	lpm	r0, Z+
    205e:	61 50       	subi	r22, 0x01	; 1
    2060:	70 40       	sbci	r23, 0x00	; 0
    2062:	01 10       	cpse	r0, r1
    2064:	d8 f7       	brcc	.-10     	; 0x205c <strnlen_P+0x2>
    2066:	80 95       	com	r24
    2068:	90 95       	com	r25
    206a:	8e 0f       	add	r24, r30
    206c:	9f 1f       	adc	r25, r31
    206e:	08 95       	ret

00002070 <strnlen>:
    2070:	fc 01       	movw	r30, r24
    2072:	61 50       	subi	r22, 0x01	; 1
    2074:	70 40       	sbci	r23, 0x00	; 0
    2076:	01 90       	ld	r0, Z+
    2078:	01 10       	cpse	r0, r1
    207a:	d8 f7       	brcc	.-10     	; 0x2072 <strnlen+0x2>
    207c:	80 95       	com	r24
    207e:	90 95       	com	r25
    2080:	8e 0f       	add	r24, r30
    2082:	9f 1f       	adc	r25, r31
    2084:	08 95       	ret

00002086 <fputc>:
    2086:	0f 93       	push	r16
    2088:	1f 93       	push	r17
    208a:	cf 93       	push	r28
    208c:	df 93       	push	r29
    208e:	fb 01       	movw	r30, r22
    2090:	23 81       	ldd	r18, Z+3	; 0x03
    2092:	21 fd       	sbrc	r18, 1
    2094:	03 c0       	rjmp	.+6      	; 0x209c <fputc+0x16>
    2096:	8f ef       	ldi	r24, 0xFF	; 255
    2098:	9f ef       	ldi	r25, 0xFF	; 255
    209a:	2c c0       	rjmp	.+88     	; 0x20f4 <fputc+0x6e>
    209c:	22 ff       	sbrs	r18, 2
    209e:	16 c0       	rjmp	.+44     	; 0x20cc <fputc+0x46>
    20a0:	46 81       	ldd	r20, Z+6	; 0x06
    20a2:	57 81       	ldd	r21, Z+7	; 0x07
    20a4:	24 81       	ldd	r18, Z+4	; 0x04
    20a6:	35 81       	ldd	r19, Z+5	; 0x05
    20a8:	42 17       	cp	r20, r18
    20aa:	53 07       	cpc	r21, r19
    20ac:	44 f4       	brge	.+16     	; 0x20be <fputc+0x38>
    20ae:	a0 81       	ld	r26, Z
    20b0:	b1 81       	ldd	r27, Z+1	; 0x01
    20b2:	9d 01       	movw	r18, r26
    20b4:	2f 5f       	subi	r18, 0xFF	; 255
    20b6:	3f 4f       	sbci	r19, 0xFF	; 255
    20b8:	31 83       	std	Z+1, r19	; 0x01
    20ba:	20 83       	st	Z, r18
    20bc:	8c 93       	st	X, r24
    20be:	26 81       	ldd	r18, Z+6	; 0x06
    20c0:	37 81       	ldd	r19, Z+7	; 0x07
    20c2:	2f 5f       	subi	r18, 0xFF	; 255
    20c4:	3f 4f       	sbci	r19, 0xFF	; 255
    20c6:	37 83       	std	Z+7, r19	; 0x07
    20c8:	26 83       	std	Z+6, r18	; 0x06
    20ca:	14 c0       	rjmp	.+40     	; 0x20f4 <fputc+0x6e>
    20cc:	8b 01       	movw	r16, r22
    20ce:	ec 01       	movw	r28, r24
    20d0:	fb 01       	movw	r30, r22
    20d2:	00 84       	ldd	r0, Z+8	; 0x08
    20d4:	f1 85       	ldd	r31, Z+9	; 0x09
    20d6:	e0 2d       	mov	r30, r0
    20d8:	19 95       	eicall
    20da:	89 2b       	or	r24, r25
    20dc:	e1 f6       	brne	.-72     	; 0x2096 <fputc+0x10>
    20de:	d8 01       	movw	r26, r16
    20e0:	16 96       	adiw	r26, 0x06	; 6
    20e2:	8d 91       	ld	r24, X+
    20e4:	9c 91       	ld	r25, X
    20e6:	17 97       	sbiw	r26, 0x07	; 7
    20e8:	01 96       	adiw	r24, 0x01	; 1
    20ea:	17 96       	adiw	r26, 0x07	; 7
    20ec:	9c 93       	st	X, r25
    20ee:	8e 93       	st	-X, r24
    20f0:	16 97       	sbiw	r26, 0x06	; 6
    20f2:	ce 01       	movw	r24, r28
    20f4:	df 91       	pop	r29
    20f6:	cf 91       	pop	r28
    20f8:	1f 91       	pop	r17
    20fa:	0f 91       	pop	r16
    20fc:	08 95       	ret

000020fe <__ultoa_invert>:
    20fe:	fa 01       	movw	r30, r20
    2100:	aa 27       	eor	r26, r26
    2102:	28 30       	cpi	r18, 0x08	; 8
    2104:	51 f1       	breq	.+84     	; 0x215a <__ultoa_invert+0x5c>
    2106:	20 31       	cpi	r18, 0x10	; 16
    2108:	81 f1       	breq	.+96     	; 0x216a <__ultoa_invert+0x6c>
    210a:	e8 94       	clt
    210c:	6f 93       	push	r22
    210e:	6e 7f       	andi	r22, 0xFE	; 254
    2110:	6e 5f       	subi	r22, 0xFE	; 254
    2112:	7f 4f       	sbci	r23, 0xFF	; 255
    2114:	8f 4f       	sbci	r24, 0xFF	; 255
    2116:	9f 4f       	sbci	r25, 0xFF	; 255
    2118:	af 4f       	sbci	r26, 0xFF	; 255
    211a:	b1 e0       	ldi	r27, 0x01	; 1
    211c:	3e d0       	rcall	.+124    	; 0x219a <__ultoa_invert+0x9c>
    211e:	b4 e0       	ldi	r27, 0x04	; 4
    2120:	3c d0       	rcall	.+120    	; 0x219a <__ultoa_invert+0x9c>
    2122:	67 0f       	add	r22, r23
    2124:	78 1f       	adc	r23, r24
    2126:	89 1f       	adc	r24, r25
    2128:	9a 1f       	adc	r25, r26
    212a:	a1 1d       	adc	r26, r1
    212c:	68 0f       	add	r22, r24
    212e:	79 1f       	adc	r23, r25
    2130:	8a 1f       	adc	r24, r26
    2132:	91 1d       	adc	r25, r1
    2134:	a1 1d       	adc	r26, r1
    2136:	6a 0f       	add	r22, r26
    2138:	71 1d       	adc	r23, r1
    213a:	81 1d       	adc	r24, r1
    213c:	91 1d       	adc	r25, r1
    213e:	a1 1d       	adc	r26, r1
    2140:	20 d0       	rcall	.+64     	; 0x2182 <__ultoa_invert+0x84>
    2142:	09 f4       	brne	.+2      	; 0x2146 <__ultoa_invert+0x48>
    2144:	68 94       	set
    2146:	3f 91       	pop	r19
    2148:	2a e0       	ldi	r18, 0x0A	; 10
    214a:	26 9f       	mul	r18, r22
    214c:	11 24       	eor	r1, r1
    214e:	30 19       	sub	r19, r0
    2150:	30 5d       	subi	r19, 0xD0	; 208
    2152:	31 93       	st	Z+, r19
    2154:	de f6       	brtc	.-74     	; 0x210c <__ultoa_invert+0xe>
    2156:	cf 01       	movw	r24, r30
    2158:	08 95       	ret
    215a:	46 2f       	mov	r20, r22
    215c:	47 70       	andi	r20, 0x07	; 7
    215e:	40 5d       	subi	r20, 0xD0	; 208
    2160:	41 93       	st	Z+, r20
    2162:	b3 e0       	ldi	r27, 0x03	; 3
    2164:	0f d0       	rcall	.+30     	; 0x2184 <__ultoa_invert+0x86>
    2166:	c9 f7       	brne	.-14     	; 0x215a <__ultoa_invert+0x5c>
    2168:	f6 cf       	rjmp	.-20     	; 0x2156 <__ultoa_invert+0x58>
    216a:	46 2f       	mov	r20, r22
    216c:	4f 70       	andi	r20, 0x0F	; 15
    216e:	40 5d       	subi	r20, 0xD0	; 208
    2170:	4a 33       	cpi	r20, 0x3A	; 58
    2172:	18 f0       	brcs	.+6      	; 0x217a <__ultoa_invert+0x7c>
    2174:	49 5d       	subi	r20, 0xD9	; 217
    2176:	31 fd       	sbrc	r19, 1
    2178:	40 52       	subi	r20, 0x20	; 32
    217a:	41 93       	st	Z+, r20
    217c:	02 d0       	rcall	.+4      	; 0x2182 <__ultoa_invert+0x84>
    217e:	a9 f7       	brne	.-22     	; 0x216a <__ultoa_invert+0x6c>
    2180:	ea cf       	rjmp	.-44     	; 0x2156 <__ultoa_invert+0x58>
    2182:	b4 e0       	ldi	r27, 0x04	; 4
    2184:	a6 95       	lsr	r26
    2186:	97 95       	ror	r25
    2188:	87 95       	ror	r24
    218a:	77 95       	ror	r23
    218c:	67 95       	ror	r22
    218e:	ba 95       	dec	r27
    2190:	c9 f7       	brne	.-14     	; 0x2184 <__ultoa_invert+0x86>
    2192:	00 97       	sbiw	r24, 0x00	; 0
    2194:	61 05       	cpc	r22, r1
    2196:	71 05       	cpc	r23, r1
    2198:	08 95       	ret
    219a:	9b 01       	movw	r18, r22
    219c:	ac 01       	movw	r20, r24
    219e:	0a 2e       	mov	r0, r26
    21a0:	06 94       	lsr	r0
    21a2:	57 95       	ror	r21
    21a4:	47 95       	ror	r20
    21a6:	37 95       	ror	r19
    21a8:	27 95       	ror	r18
    21aa:	ba 95       	dec	r27
    21ac:	c9 f7       	brne	.-14     	; 0x21a0 <__ultoa_invert+0xa2>
    21ae:	62 0f       	add	r22, r18
    21b0:	73 1f       	adc	r23, r19
    21b2:	84 1f       	adc	r24, r20
    21b4:	95 1f       	adc	r25, r21
    21b6:	a0 1d       	adc	r26, r0
    21b8:	08 95       	ret

000021ba <_exit>:
    21ba:	f8 94       	cli

000021bc <__stop_program>:
    21bc:	ff cf       	rjmp	.-2      	; 0x21bc <__stop_program>
